# Linker from Snapdragon LLVM ARM Compiler Version 4.0.3
# Linker based on LLVM version: 4.0
# Notable linker command/script options:
# CPU Architecture Version: 
# Target triple environment for the link: gnueabi
# Maximum GP size: 8
# Link type: Static
# ABI Page Size: 0x4
# CommandLine : C:\compile_tools\LLVM\4.0.3\bin\ld.qcld.exe -X --eh-frame-hdr -m armelf_linux_eabi -dynamic-linker /lib/ld-musl-arm.so.1 -o ./bin/example_atfwd.elf -lc++ -mno-unaligned-access -entry=0x43000000 ./quectel/example/build/txm_module_preamble_llvm.o -T./quectel/build/quectel_dam_demo.ld -Map -Wl -gc-sections ./quectel/example/build/example_atfwd.o ./quectel/example/build/quectel_uart_apis.o ./quectel/example/build/quectel_utils.o ./quectel/example/build/txm_module_preamble_llvm.o ./libs/diag_dam_lib.lib ./libs/qapi_psm_lib.lib ./libs/timer_dam_lib.lib ./libs/txm_lib.lib -LC:\compile_tools\LLVM\4.0.3\armv7m-none-eabi\libc\lib -LC:\compile_tools\LLVM\4.0.3\armv7m-none-eabi\lib --start-group -lunwind -lc++ -lc++abi --end-group -LC:\compile_tools\LLVM\4.0.3\lib\clang\4.0.3\lib\baremetal --start-group -lc -lclang_rt.builtins-armv7m --end-group -lm -lc 
Archive member included because of file (symbol)
./libs/timer_dam_lib.lib(qapi_timer_user.o)
		./quectel/example/build/example_atfwd.o (qapi_Timer_Def)
./libs/txm_lib.lib(txm_module_thread_shell_entry.o)
		./quectel/example/build/example_atfwd.o (_txm_module_kernel_call_dispatcher)
./libs/txm_lib.lib(txm_module_callback_request_thread_entry.o)
		./quectel/example/build/txm_module_preamble_llvm.o (_txm_module_callback_request_thread_entry)
./libs/txm_lib.lib(txm_module_system_call11.o)
		./quectel/example/build/example_atfwd.o (_txm_module_system_call11)
./libs/txm_lib.lib(txm_module_system_call12.o)
		./quectel/example/build/example_atfwd.o (_txm_module_system_call12)
./libs/txm_lib.lib(txm_module_system_call4.o)
		./quectel/example/build/example_atfwd.o (_txm_module_system_call4)
./libs/txm_lib.lib(txm_module_system_call5.o)
		./quectel/example/build/example_atfwd.o (_txm_module_system_call5)
./libs/txm_lib.lib(txm_module_system_call6.o)
		./quectel/example/build/example_atfwd.o (_txm_module_system_call6)
C:\compile_tools\LLVM\4.0.3\armv7m-none-eabi\libc\lib/libc.a(setlocale.o)
		./quectel/example/build/example_atfwd.o (setlocale)
C:\compile_tools\LLVM\4.0.3\armv7m-none-eabi\libc\lib/libc.a(vfprintf.o)
		./quectel/example/build/example_atfwd.o (vsnprintf)
C:\compile_tools\LLVM\4.0.3\armv7m-none-eabi\libc\lib/libc.a(fwrite.o)
		C:\compile_tools\LLVM\4.0.3\armv7m-none-eabi\libc\lib/libc.a(vfprintf.o) (__fwritex)
C:\compile_tools\LLVM\4.0.3\armv7m-none-eabi\libc\lib/libc.a(snprintf.o)
		./quectel/example/build/example_atfwd.o (snprintf)
C:\compile_tools\LLVM\4.0.3\armv7m-none-eabi\libc\lib/libc.a(vsnprintf.o)
		C:\compile_tools\LLVM\4.0.3\armv7m-none-eabi\libc\lib/libc.a(vfprintf.o) (vsnprintf_full)
C:\compile_tools\LLVM\4.0.3\armv7m-none-eabi\libc\lib/libc.a(__aeabi_memclr.o)
		C:\compile_tools\LLVM\4.0.3\armv7m-none-eabi\libc\lib/libc.a(vfprintf.o) (__aeabi_memclr4)
C:\compile_tools\LLVM\4.0.3\armv7m-none-eabi\libc\lib/libc.a(__aeabi_memcpy.o)
		C:\compile_tools\LLVM\4.0.3\armv7m-none-eabi\libc\lib/libc.a(vsnprintf.o) (__aeabi_memcpy8)
C:\compile_tools\LLVM\4.0.3\armv7m-none-eabi\libc\lib/libc.a(memcpy_le.o)
		./quectel/example/build/example_atfwd.o (memcpy)
C:\compile_tools\LLVM\4.0.3\armv7m-none-eabi\libc\lib/libc.a(memset_nofp_armv7.o)
		./quectel/example/build/example_atfwd.o (memset)
C:\compile_tools\LLVM\4.0.3\armv7m-none-eabi\libc\lib/libc.a(memchr.o)
		C:\compile_tools\LLVM\4.0.3\armv7m-none-eabi\libc\lib/libc.a(vfprintf.o) (memchr)
C:\compile_tools\LLVM\4.0.3\armv7m-none-eabi\libc\lib/libc.a(memcmp.o)
		./quectel/example/build/example_atfwd.o (memcmp)
C:\compile_tools\LLVM\4.0.3\armv7m-none-eabi\libc\lib/libc.a(strchrnul.o)
		C:\compile_tools\LLVM\4.0.3\armv7m-none-eabi\libc\lib/libc.a(setlocale.o) (__strchrnul)
C:\compile_tools\LLVM\4.0.3\armv7m-none-eabi\libc\lib/libc.a(strlen.o)
		./quectel/example/build/example_atfwd.o (strlen)
C:\compile_tools\LLVM\4.0.3\armv7m-none-eabi\libc\lib/libc.a(__lock.o)
		C:\compile_tools\LLVM\4.0.3\armv7m-none-eabi\libc\lib/libc.a(setlocale.o) (__lock)
C:\compile_tools\LLVM\4.0.3\armv7m-none-eabi\libc\lib/libc.a(__wait.o)
		C:\compile_tools\LLVM\4.0.3\armv7m-none-eabi\libc\lib/libc.a(__lock.o) (__wait)
C:\compile_tools\LLVM\4.0.3\armv7m-none-eabi\libc\lib/libc.a(__errno_location.o)
		C:\compile_tools\LLVM\4.0.3\armv7m-none-eabi\libc\lib/libc.a(vfprintf.o) (__errno_location)
C:\compile_tools\LLVM\4.0.3\armv7m-none-eabi\libc\lib/libc.a(strerror.o)
		C:\compile_tools\LLVM\4.0.3\armv7m-none-eabi\libc\lib/libc.a(vfprintf.o) (strerror)
C:\compile_tools\LLVM\4.0.3\armv7m-none-eabi\libc\lib/libc.a(libc.o)
		C:\compile_tools\LLVM\4.0.3\armv7m-none-eabi\libc\lib/libc.a(setlocale.o) (__libc)
C:\compile_tools\LLVM\4.0.3\armv7m-none-eabi\libc\lib/libc.a(__lctrans.o)
		C:\compile_tools\LLVM\4.0.3\armv7m-none-eabi\libc\lib/libc.a(strerror.o) (__lctrans)
C:\compile_tools\LLVM\4.0.3\armv7m-none-eabi\libc\lib/libc.a(locale_map.o)
		C:\compile_tools\LLVM\4.0.3\armv7m-none-eabi\libc\lib/libc.a(setlocale.o) (__get_locale)
C:\compile_tools\LLVM\4.0.3\armv7m-none-eabi\libc\lib/libc.a(malloc.o)
		C:\compile_tools\LLVM\4.0.3\armv7m-none-eabi\libc\lib/libc.a(locale_map.o) (malloc)
C:\compile_tools\LLVM\4.0.3\armv7m-none-eabi\libc\lib/libc.a(madvise.o)
		C:\compile_tools\LLVM\4.0.3\armv7m-none-eabi\libc\lib/libc.a(malloc.o) (__madvise)
C:\compile_tools\LLVM\4.0.3\armv7m-none-eabi\libc\lib/libc.a(mremap.o)
		C:\compile_tools\LLVM\4.0.3\armv7m-none-eabi\libc\lib/libc.a(malloc.o) (__mremap)
C:\compile_tools\LLVM\4.0.3\armv7m-none-eabi\libc\lib/libc.a(munmap.o)
		C:\compile_tools\LLVM\4.0.3\armv7m-none-eabi\libc\lib/libc.a(locale_map.o) (__munmap)
C:\compile_tools\LLVM\4.0.3\armv7m-none-eabi\libc\lib/libc.a(wctomb.o)
		C:\compile_tools\LLVM\4.0.3\armv7m-none-eabi\libc\lib/libc.a(vfprintf.o) (wctomb)
C:\compile_tools\LLVM\4.0.3\armv7m-none-eabi\libc\lib/libc.a(__towrite.o)
		C:\compile_tools\LLVM\4.0.3\armv7m-none-eabi\libc\lib/libc.a(fwrite.o) (__towrite)
C:\compile_tools\LLVM\4.0.3\armv7m-none-eabi\libc\lib/libc.a(__lockfile.o)
		C:\compile_tools\LLVM\4.0.3\armv7m-none-eabi\libc\lib/libc.a(vfprintf.o) (__lockfile)
C:\compile_tools\LLVM\4.0.3\armv7m-none-eabi\libc\lib/libc.a(strcmp.o)
		C:\compile_tools\LLVM\4.0.3\armv7m-none-eabi\libc\lib/libc.a(locale_map.o) (strcmp)
C:\compile_tools\LLVM\4.0.3\armv7m-none-eabi\libc\lib/libc.a(__map_file.o)
		C:\compile_tools\LLVM\4.0.3\armv7m-none-eabi\libc\lib/libc.a(locale_map.o) (__map_file)
C:\compile_tools\LLVM\4.0.3\armv7m-none-eabi\libc\lib/libc.a(getenv.o)
		C:\compile_tools\LLVM\4.0.3\armv7m-none-eabi\libc\lib/libc.a(locale_map.o) (getenv)
C:\compile_tools\LLVM\4.0.3\armv7m-none-eabi\libc\lib/libc.a(syscall_ret.o)
		C:\compile_tools\LLVM\4.0.3\armv7m-none-eabi\libc\lib/libc.a(madvise.o) (__syscall_ret)
C:\compile_tools\LLVM\4.0.3\armv7m-none-eabi\libc\lib/libc.a(__mo_lookup.o)
		C:\compile_tools\LLVM\4.0.3\armv7m-none-eabi\libc\lib/libc.a(locale_map.o) (__mo_lookup)
C:\compile_tools\LLVM\4.0.3\armv7m-none-eabi\libc\lib/libc.a(c_locale.o)
		C:\compile_tools\LLVM\4.0.3\armv7m-none-eabi\libc\lib/libc.a(locale_map.o) (__c_dot_utf8)
C:\compile_tools\LLVM\4.0.3\armv7m-none-eabi\libc\lib/libc.a(expand_heap.o)
		C:\compile_tools\LLVM\4.0.3\armv7m-none-eabi\libc\lib/libc.a(malloc.o) (__expand_heap)
C:\compile_tools\LLVM\4.0.3\armv7m-none-eabi\libc\lib/libc.a(mmap.o)
		C:\compile_tools\LLVM\4.0.3\armv7m-none-eabi\libc\lib/libc.a(__map_file.o) (__mmap)
C:\compile_tools\LLVM\4.0.3\armv7m-none-eabi\libc\lib/libc.a(wcrtomb.o)
		C:\compile_tools\LLVM\4.0.3\armv7m-none-eabi\libc\lib/libc.a(wctomb.o) (wcrtomb)
C:\compile_tools\LLVM\4.0.3\armv7m-none-eabi\libc\lib/libc.a(__stdio_exit.o)
		C:\compile_tools\LLVM\4.0.3\armv7m-none-eabi\libc\lib/libc.a(__towrite.o) (__stdio_exit_needed)
C:\compile_tools\LLVM\4.0.3\armv7m-none-eabi\libc\lib/libc.a(ofl.o)
		C:\compile_tools\LLVM\4.0.3\armv7m-none-eabi\libc\lib/libc.a(__stdio_exit.o) (__ofl_lock)
C:\compile_tools\LLVM\4.0.3\armv7m-none-eabi\libc\lib/libc.a(strchr.o)
		C:\compile_tools\LLVM\4.0.3\armv7m-none-eabi\libc\lib/libc.a(getenv.o) (strchr)
C:\compile_tools\LLVM\4.0.3\armv7m-none-eabi\libc\lib/libc.a(strncmp.o)
		C:\compile_tools\LLVM\4.0.3\armv7m-none-eabi\libc\lib/libc.a(getenv.o) (strncmp)
C:\compile_tools\LLVM\4.0.3\armv7m-none-eabi\libc\lib/libc.a(__environ.o)
		C:\compile_tools\LLVM\4.0.3\armv7m-none-eabi\libc\lib/libc.a(getenv.o) (__environ)
C:\compile_tools\LLVM\4.0.3\armv7m-none-eabi\libc\lib/libc.a(__brk.o)
		C:\compile_tools\LLVM\4.0.3\armv7m-none-eabi\libc\lib/libc.a(expand_heap.o) (__brk)
C:\compile_tools\LLVM\4.0.3\lib\clang\4.0.3\lib\baremetal/libclang_rt.builtins-armv7m.a(aeabi_uldivmod.S.obj)
		C:\compile_tools\LLVM\4.0.3\armv7m-none-eabi\libc\lib/libc.a(vfprintf.o) (__aeabi_uldivmod)
C:\compile_tools\LLVM\4.0.3\lib\clang\4.0.3\lib\baremetal/libclang_rt.builtins-armv7m.a(extendsfdf2.c.obj)
		./quectel/example/build/example_atfwd.o (__aeabi_f2d)
C:\compile_tools\LLVM\4.0.3\lib\clang\4.0.3\lib\baremetal/libclang_rt.builtins-armv7m.a(fixunsdfsi.c.obj)
		./quectel/example/build/example_atfwd.o (__aeabi_d2uiz)
C:\compile_tools\LLVM\4.0.3\lib\clang\4.0.3\lib\baremetal/libclang_rt.builtins-armv7m.a(floatsisf.c.obj)
		./quectel/example/build/example_atfwd.o (__aeabi_i2f)
C:\compile_tools\LLVM\4.0.3\lib\clang\4.0.3\lib\baremetal/libclang_rt.builtins-armv7m.a(muldf3.c.obj)
		./quectel/example/build/example_atfwd.o (__aeabi_dmul)
C:\compile_tools\LLVM\4.0.3\lib\clang\4.0.3\lib\baremetal/libclang_rt.builtins-armv7m.a(mulsf3.c.obj)
		./quectel/example/build/example_atfwd.o (__aeabi_fmul)
C:\compile_tools\LLVM\4.0.3\lib\clang\4.0.3\lib\baremetal/libclang_rt.builtins-armv7m.a(udivmoddi4.c.obj)
		C:\compile_tools\LLVM\4.0.3\lib\clang\4.0.3\lib\baremetal/libclang_rt.builtins-armv7m.a(aeabi_uldivmod.S.obj) (__udivmoddi4)

Allocating common symbols
Common symbol	size	file

timer_client_stack	0x1000	./libs/timer_dam_lib.lib(qapi_timer_user.o)
timer_client_module_thread	0x4	./libs/timer_dam_lib.lib(qapi_timer_user.o)
timer_thread_state	0x4	./libs/timer_dam_lib.lib(qapi_timer_user.o)
timer_user_handle	0x4	./libs/timer_dam_lib.lib(qapi_timer_user.o)
_txm_module_entry_info	0x4	./libs/txm_lib.lib(txm_module_thread_shell_entry.o)
_txm_module_instance_ptr	0x4	./libs/txm_lib.lib(txm_module_thread_shell_entry.o)
_txm_module_kernel_call_dispatcher	0x4	./libs/txm_lib.lib(txm_module_thread_shell_entry.o)
__libc	0x40	C:\compile_tools\LLVM\4.0.3\armv7m-none-eabi\libc\lib/libc.a(libc.o)

Linker Script and memory map
LOAD ./quectel/example/build/txm_module_preamble_llvm.o[]
LOAD ./quectel/example/build/example_atfwd.o[]
LOAD ./quectel/example/build/quectel_uart_apis.o[]
LOAD ./quectel/example/build/quectel_utils.o[]
SKIPPED ./quectel/example/build/txm_module_preamble_llvm.o (ELF)
LOAD ./libs/timer_dam_lib.lib(qapi_timer_user.o) []
LOAD ./libs/txm_lib.lib(txm_module_thread_shell_entry.o) []
LOAD ./libs/txm_lib.lib(txm_module_callback_request_thread_entry.o) []
LOAD ./libs/txm_lib.lib(txm_module_system_call11.o) []
LOAD ./libs/txm_lib.lib(txm_module_system_call12.o) []
LOAD ./libs/txm_lib.lib(txm_module_system_call4.o) []
LOAD ./libs/txm_lib.lib(txm_module_system_call5.o) []
LOAD ./libs/txm_lib.lib(txm_module_system_call6.o) []
START GROUP
END GROUP
START GROUP
LOAD C:\compile_tools\LLVM\4.0.3\armv7m-none-eabi\libc\lib/libc.a(setlocale.o) []
LOAD C:\compile_tools\LLVM\4.0.3\armv7m-none-eabi\libc\lib/libc.a(vfprintf.o) []
LOAD C:\compile_tools\LLVM\4.0.3\armv7m-none-eabi\libc\lib/libc.a(fwrite.o) []
LOAD C:\compile_tools\LLVM\4.0.3\armv7m-none-eabi\libc\lib/libc.a(snprintf.o) []
LOAD C:\compile_tools\LLVM\4.0.3\armv7m-none-eabi\libc\lib/libc.a(vsnprintf.o) []
LOAD C:\compile_tools\LLVM\4.0.3\armv7m-none-eabi\libc\lib/libc.a(__aeabi_memclr.o) []
LOAD C:\compile_tools\LLVM\4.0.3\armv7m-none-eabi\libc\lib/libc.a(__aeabi_memcpy.o) []
LOAD C:\compile_tools\LLVM\4.0.3\armv7m-none-eabi\libc\lib/libc.a(memcpy_le.o) []
LOAD C:\compile_tools\LLVM\4.0.3\armv7m-none-eabi\libc\lib/libc.a(memset_nofp_armv7.o) []
LOAD C:\compile_tools\LLVM\4.0.3\armv7m-none-eabi\libc\lib/libc.a(memchr.o) []
LOAD C:\compile_tools\LLVM\4.0.3\armv7m-none-eabi\libc\lib/libc.a(memcmp.o) []
LOAD C:\compile_tools\LLVM\4.0.3\armv7m-none-eabi\libc\lib/libc.a(strchrnul.o) []
LOAD C:\compile_tools\LLVM\4.0.3\armv7m-none-eabi\libc\lib/libc.a(strlen.o) []
LOAD C:\compile_tools\LLVM\4.0.3\armv7m-none-eabi\libc\lib/libc.a(__lock.o) []
LOAD C:\compile_tools\LLVM\4.0.3\armv7m-none-eabi\libc\lib/libc.a(__wait.o) []
LOAD C:\compile_tools\LLVM\4.0.3\armv7m-none-eabi\libc\lib/libc.a(__errno_location.o) []
LOAD C:\compile_tools\LLVM\4.0.3\armv7m-none-eabi\libc\lib/libc.a(strerror.o) []
LOAD C:\compile_tools\LLVM\4.0.3\armv7m-none-eabi\libc\lib/libc.a(libc.o) []
LOAD C:\compile_tools\LLVM\4.0.3\armv7m-none-eabi\libc\lib/libc.a(__lctrans.o) []
LOAD C:\compile_tools\LLVM\4.0.3\armv7m-none-eabi\libc\lib/libc.a(locale_map.o) []
LOAD C:\compile_tools\LLVM\4.0.3\armv7m-none-eabi\libc\lib/libc.a(malloc.o) []
LOAD C:\compile_tools\LLVM\4.0.3\armv7m-none-eabi\libc\lib/libc.a(madvise.o) []
LOAD C:\compile_tools\LLVM\4.0.3\armv7m-none-eabi\libc\lib/libc.a(mremap.o) []
LOAD C:\compile_tools\LLVM\4.0.3\armv7m-none-eabi\libc\lib/libc.a(munmap.o) []
LOAD C:\compile_tools\LLVM\4.0.3\armv7m-none-eabi\libc\lib/libc.a(wctomb.o) []
LOAD C:\compile_tools\LLVM\4.0.3\armv7m-none-eabi\libc\lib/libc.a(__towrite.o) []
LOAD C:\compile_tools\LLVM\4.0.3\armv7m-none-eabi\libc\lib/libc.a(__lockfile.o) []
LOAD C:\compile_tools\LLVM\4.0.3\armv7m-none-eabi\libc\lib/libc.a(strcmp.o) []
LOAD C:\compile_tools\LLVM\4.0.3\armv7m-none-eabi\libc\lib/libc.a(__map_file.o) []
LOAD C:\compile_tools\LLVM\4.0.3\armv7m-none-eabi\libc\lib/libc.a(getenv.o) []
LOAD C:\compile_tools\LLVM\4.0.3\armv7m-none-eabi\libc\lib/libc.a(syscall_ret.o) []
LOAD C:\compile_tools\LLVM\4.0.3\armv7m-none-eabi\libc\lib/libc.a(__mo_lookup.o) []
LOAD C:\compile_tools\LLVM\4.0.3\armv7m-none-eabi\libc\lib/libc.a(c_locale.o) []
LOAD C:\compile_tools\LLVM\4.0.3\armv7m-none-eabi\libc\lib/libc.a(expand_heap.o) []
LOAD C:\compile_tools\LLVM\4.0.3\armv7m-none-eabi\libc\lib/libc.a(mmap.o) []
LOAD C:\compile_tools\LLVM\4.0.3\armv7m-none-eabi\libc\lib/libc.a(wcrtomb.o) []
LOAD C:\compile_tools\LLVM\4.0.3\armv7m-none-eabi\libc\lib/libc.a(__stdio_exit.o) []
LOAD C:\compile_tools\LLVM\4.0.3\armv7m-none-eabi\libc\lib/libc.a(ofl.o) []
LOAD C:\compile_tools\LLVM\4.0.3\armv7m-none-eabi\libc\lib/libc.a(strchr.o) []
LOAD C:\compile_tools\LLVM\4.0.3\armv7m-none-eabi\libc\lib/libc.a(strncmp.o) []
LOAD C:\compile_tools\LLVM\4.0.3\armv7m-none-eabi\libc\lib/libc.a(__environ.o) []
LOAD C:\compile_tools\LLVM\4.0.3\armv7m-none-eabi\libc\lib/libc.a(__brk.o) []
LOAD C:\compile_tools\LLVM\4.0.3\lib\clang\4.0.3\lib\baremetal/libclang_rt.builtins-armv7m.a(aeabi_uldivmod.S.obj) []
LOAD C:\compile_tools\LLVM\4.0.3\lib\clang\4.0.3\lib\baremetal/libclang_rt.builtins-armv7m.a(extendsfdf2.c.obj) []
LOAD C:\compile_tools\LLVM\4.0.3\lib\clang\4.0.3\lib\baremetal/libclang_rt.builtins-armv7m.a(fixunsdfsi.c.obj) []
LOAD C:\compile_tools\LLVM\4.0.3\lib\clang\4.0.3\lib\baremetal/libclang_rt.builtins-armv7m.a(floatsisf.c.obj) []
LOAD C:\compile_tools\LLVM\4.0.3\lib\clang\4.0.3\lib\baremetal/libclang_rt.builtins-armv7m.a(muldf3.c.obj) []
LOAD C:\compile_tools\LLVM\4.0.3\lib\clang\4.0.3\lib\baremetal/libclang_rt.builtins-armv7m.a(mulsf3.c.obj) []
LOAD C:\compile_tools\LLVM\4.0.3\lib\clang\4.0.3\lib\baremetal/libclang_rt.builtins-armv7m.a(udivmoddi4.c.obj) []
END GROUP

Linker scripts used (including INCLUDE command)
./quectel/build/quectel_dam_demo.ld

ER_RO	0x43000000	0x8190 # Offset: 0x60, LMA: 0x43000000
	Image$$ER_RO$$Base(0x43000000) = .( 0x43000000 );
*txm_module_preamble_llvm.o(.text .text.* )
*txm_module_preamble_llvm.o(Init )
Init	0x43000000	0x80	./quectel/example/build/txm_module_preamble_llvm.o	#SHT_PROGBITS,SHF_ALLOC|SHF_EXECINSTR,4
	0x43000000		.CODE32
	0x43000000		_txm_module_preamble
*txm_module_preamble_llvm.o(.rodata .rodata.* )
KEEP (*(.text .text.* ))
.text	0x43000080	0x2e38	./quectel/example/build/example_atfwd.o	#SHT_PROGBITS,SHF_ALLOC|SHF_EXECINSTR,4
	0x43000080		$a.0
	0x43000080		atel_dbg_print
	0x43000128		$d.1
	0x43000130		$a.2
	0x43000130		mdmSendToBle
	0x43000198		$d.3
	0x430001a4		getAdc
	0x430001a4		$a.4
	0x430001b0		api_switch
	0x430001d8		$d.5
	0x4300022c		$a.6
	0x430006c4		$d.7
	0x43000734		getVer
	0x43000734		$a.8
	0x43000740		queryPincfg
	0x43000760		queryIntStatus
	0x4300076c		kickTheWatchDog
	0x4300078c		queryRtcSleepTime
	0x43000798		queryDevId
	0x430007a4		newSleepTimeFormat
	0x430007d4		resetCounter
	0x430007e0		wdDefaultTimer
	0x43000800		queryGpio
	0x43000824		gpioCfg
	0x4300084c		readE2rom
	0x43000858		writeE2rom
	0x43000864		readGpio
	0x43000884		setGpio
	0x430008b4		hardRest
	0x430008d4		setAdcLevel
	0x430008fc		sleepTimer
	0x4300091c		powerControl
	0x43000928		testCmd
	0x43000934		frame_check
	0x430009c8		$d.9
	0x430009cc		$a.10
	0x430009cc		qt_uart3_hex
	0x43000a0c		$d.11
	0x43000a14		$a.12
	0x43000a14		qt_uart3_dbg
	0x43000a94		$d.13
	0x43000a9c		$a.14
	0x43000a9c		cmd_to_ble
	0x43000b58		$d.15
	0x43000b64		$a.16
	0x43000b64		strncasecmp
	0x43000bc4		ble_parse
	0x43000c18		$d.17
	0x43000cdc		$a.18
	0x43001358		$d.19
	0x430013d4		adc_raw_2_mVolt
	0x430013d4		$a.20
	0x43001410		uart_init_at
	0x430014c4		$d.21
	0x430014d8		$a.22
	0x430014d8		ble_rx_cb
	0x430015b8		$d.23
	0x430015dc		$a.24
	0x430015dc		uart_tx_cb_at
	0x430015f0		$d.25
	0x430015f8		$a.26
	0x430015f8		qapi_uart_tx_user_cb_dispatcher
	0x43001618		qapi_uart_rx_user_cb_dispatcher
	0x43001638		uart_deinit_at
	0x4300168c		$d.27
	0x43001690		uart_recv_at
	0x43001690		$a.28
	0x430016bc		$d.29
	0x430016c0		char2hex
	0x430016c0		$a.30
	0x43001758		put_cmd_to_queue
	0x43001820		$d.31
	0x43001838		$a.32
	0x43001838		is_fullQueue
	0x43001868		$d.33
	0x4300186c		$a.34
	0x4300186c		In_Queue
	0x430018c8		$d.35
	0x430018d8		$a.36
	0x430018d8		pc_switch
	0x43001a0c		$d.37
	0x43001ab0		pc_atfwd_cmd_handler_cb
	0x43001ab0		$a.38
	0x43001c90		$d.39
	0x43001cb0		$a.40
	0x43001cb0		atel_timer_cb
	0x43001da4		$d.41
	0x43001dc8		$a.42
	0x43001dc8		uart2_init
	0x43001f04		$d.43
	0x43001f1c		$a.44
	0x43001f1c		uart3_init
	0x43002058		$d.45
	0x43002070		msg_parse
	0x43002070		$a.46
	0x4300209c		$d.47
	0x430020f4		$a.48
	0x43002398		$d.49
	0x430023f8		out_Queue
	0x430023f8		$a.50
	0x4300244c		$d.51
	0x4300245c		$a.52
	0x4300245c		quectel_task_entry
	0x43002cc4		$d.53
	0x43002e54		qapi_atfwd_cb_uspace_dispatcher
	0x43002e54		$a.54
	0x43002e98		isemptyQueue
	0x43002eb4		$d.55
.text	0x43002eb8	0x4b4	./quectel/example/build/quectel_uart_apis.o	#SHT_PROGBITS,SHF_ALLOC|SHF_EXECINSTR,4
	0x43002eb8		$a.0
	0x43002eb8		uart_init
	0x43002ff4		$d.1
	0x43003018		$a.2
	0x43003018		uart_rx_cb
	0x430030c8		$d.3
	0x430030d0		$a.4
	0x430030d0		uart_tx_cb
	0x43003138		$d.5
	0x43003140		$a.6
	0x43003140		qapi_uart_tx_user_cb_dispatcher
	0x43003160		qapi_uart_rx_user_cb_dispatcher
	0x43003180		uart_print
	0x4300320c		$d.7
	0x43003218		$a.8
	0x43003218		uart_recv
	0x430032a4		$d.9
	0x430032ac		$a.10
	0x430032ac		qt_uart_dbg
	0x43003364		$d.11
.text	0x4300336c	0x88	./quectel/example/build/quectel_utils.o	#SHT_PROGBITS,SHF_ALLOC|SHF_EXECINSTR,4
	0x4300336c		$a.0
	0x4300336c		quectel_format_log_msg
	0x430033f0		$d.1
.text.qapi_Timer_Get_Cbinfo	0x430033f4	0x38	./libs/timer_dam_lib.lib(qapi_timer_user.o)	#SHT_PROGBITS,SHF_ALLOC|SHF_EXECINSTR,4
	0x430033f4		$t.0
	0x430033f5		qapi_Timer_Get_Cbinfo
	0x43003428		$d.1
.text.timer_client_cb_handler	0x4300342c	0x28	./libs/timer_dam_lib.lib(qapi_timer_user.o)	#SHT_PROGBITS,SHF_ALLOC|SHF_EXECINSTR,2
	0x4300342c		$t.2
	0x4300342d		timer_client_cb_handler
.text.qapi_timer_user_init	0x43003454	0xb4	./libs/timer_dam_lib.lib(qapi_timer_user.o)	#SHT_PROGBITS,SHF_ALLOC|SHF_EXECINSTR,4
	0x43003454		$t.3
	0x43003455		qapi_timer_user_init
	0x430034e4		$d.4
.text.qapi_Timer_Def	0x43003508	0x54	./libs/timer_dam_lib.lib(qapi_timer_user.o)	#SHT_PROGBITS,SHF_ALLOC|SHF_EXECINSTR,4
	0x43003508		$t.5
	0x43003509		qapi_Timer_Def
	0x43003550		$d.6
.text.qapi_Timer_Set	0x4300355c	0x38	./libs/timer_dam_lib.lib(qapi_timer_user.o)	#SHT_PROGBITS,SHF_ALLOC|SHF_EXECINSTR,4
	0x4300355c		$t.7
	0x4300355d		qapi_Timer_Set
	0x43003590		$d.8
.text.qapi_Timer_Get_Timer_Info	0x43003594	0x38	./libs/timer_dam_lib.lib(qapi_timer_user.o)	#SHT_PROGBITS,SHF_ALLOC|SHF_EXECINSTR,4
	0x43003594		$t.9
	0x43003595		qapi_Timer_Get_Timer_Info
	0x430035c8		$d.10
.text.qapi_Timer_Sleep	0x430035cc	0x38	./libs/timer_dam_lib.lib(qapi_timer_user.o)	#SHT_PROGBITS,SHF_ALLOC|SHF_EXECINSTR,4
	0x430035cc		$t.11
	0x430035cd		qapi_Timer_Sleep
	0x43003600		$d.12
.text.qapi_Timer_Undef	0x43003604	0x34	./libs/timer_dam_lib.lib(qapi_timer_user.o)	#SHT_PROGBITS,SHF_ALLOC|SHF_EXECINSTR,4
	0x43003604		$t.13
	0x43003605		qapi_Timer_Undef
	0x43003634		$d.14
.text.qapi_Timer_Stop	0x43003638	0x34	./libs/timer_dam_lib.lib(qapi_timer_user.o)	#SHT_PROGBITS,SHF_ALLOC|SHF_EXECINSTR,4
	0x43003638		$t.15
	0x43003639		qapi_Timer_Stop
	0x43003668		$d.16
.text.qapi_time_get	0x4300366c	0x3c	./libs/timer_dam_lib.lib(qapi_timer_user.o)	#SHT_PROGBITS,SHF_ALLOC|SHF_EXECINSTR,4
	0x4300366c		$t.17
	0x4300366d		qapi_time_get
	0x430036a4		$d.18
.text._txm_module_thread_shell_entry	0x430036a8	0x94	./libs/txm_lib.lib(txm_module_thread_shell_entry.o)	#SHT_PROGBITS,SHF_ALLOC|SHF_EXECINSTR,4
	0x430036a8		$a.0
	0x430036a8		_txm_module_thread_shell_entry
	0x43003730		$d.1
.text._txm_module_callback_request_thread_entry	0x4300373c	0x108	./libs/txm_lib.lib(txm_module_callback_request_thread_entry.o)	#SHT_PROGBITS,SHF_ALLOC|SHF_EXECINSTR,4
	0x4300373c		$a.0
	0x4300373c		_txm_module_callback_request_thread_entry
	0x43003794		$d.1
	0x430037a8		$a.2
	0x4300383c		$d.3
.text._txm_module_system_call11	0x43003844	0x68	./libs/txm_lib.lib(txm_module_system_call11.o)	#SHT_PROGBITS,SHF_ALLOC|SHF_EXECINSTR,4
	0x43003844		$a.0
	0x43003844		_txm_module_system_call11
	0x430038a8		$d.1
.text._txm_module_system_call12	0x430038ac	0x70	./libs/txm_lib.lib(txm_module_system_call12.o)	#SHT_PROGBITS,SHF_ALLOC|SHF_EXECINSTR,4
	0x430038ac		$a.0
	0x430038ac		_txm_module_system_call12
	0x43003918		$d.1
.text._txm_module_system_call4	0x4300391c	0x2c	./libs/txm_lib.lib(txm_module_system_call4.o)	#SHT_PROGBITS,SHF_ALLOC|SHF_EXECINSTR,4
	0x4300391c		$a.0
	0x4300391c		_txm_module_system_call4
	0x43003944		$d.1
.text._txm_module_system_call5	0x43003948	0x34	./libs/txm_lib.lib(txm_module_system_call5.o)	#SHT_PROGBITS,SHF_ALLOC|SHF_EXECINSTR,4
	0x43003948		$a.0
	0x43003948		_txm_module_system_call5
	0x43003978		$d.1
.text._txm_module_system_call6	0x4300397c	0x3c	./libs/txm_lib.lib(txm_module_system_call6.o)	#SHT_PROGBITS,SHF_ALLOC|SHF_EXECINSTR,4
	0x4300397c		$a.0
	0x4300397c		_txm_module_system_call6
	0x430039b4		$d.1
.text.setlocale	0x430039b8	0xe8	C:\compile_tools\LLVM\4.0.3\armv7m-none-eabi\libc\lib/libc.a(setlocale.o)	#SHT_PROGBITS,SHF_ALLOC|SHF_EXECINSTR,4
	0x430039b8		$t
	0x430039b9		setlocale
	0x43003a90		$d
.text.setlocale_one_unlocked	0x43003aa0	0x34	C:\compile_tools\LLVM\4.0.3\armv7m-none-eabi\libc\lib/libc.a(setlocale.o)	#SHT_PROGBITS,SHF_ALLOC|SHF_EXECINSTR,4
	0x43003aa0		$t
	0x43003aa1		setlocale_one_unlocked
	0x43003acc		$d
.text.vfprintf	0x43003ad4	0xd6	C:\compile_tools\LLVM\4.0.3\armv7m-none-eabi\libc\lib/libc.a(vfprintf.o)	#SHT_PROGBITS,SHF_ALLOC|SHF_EXECINSTR,2
	0x43003ad4		$t
	0x43003ad5		vfprintf
PADDING_ALIGNMENT	0x43003baa	0x2	0x0
.text.printf_core	0x43003bac	0x6a8	C:\compile_tools\LLVM\4.0.3\armv7m-none-eabi\libc\lib/libc.a(vfprintf.o)	#SHT_PROGBITS,SHF_ALLOC|SHF_EXECINSTR,4
	0x43003bac		$t
	0x43003bad		printf_core
	0x43003e5c		$d
	0x43003e64		$t
	0x430040cc		$d
	0x430040f2		$t
	0x43004230		$d
.text.vsnprintf	0x43004254	0x1a4	C:\compile_tools\LLVM\4.0.3\armv7m-none-eabi\libc\lib/libc.a(vfprintf.o)	#SHT_PROGBITS,SHF_ALLOC|SHF_EXECINSTR,4
	0x43004254		$t
	0x43004255		vsnprintf
	0x430043f4		$d
.text.fmt_u32	0x430043f8	0x22	C:\compile_tools\LLVM\4.0.3\armv7m-none-eabi\libc\lib/libc.a(vfprintf.o)	#SHT_PROGBITS,SHF_ALLOC|SHF_EXECINSTR,2
	0x430043f8		$t
	0x430043f9		fmt_u32
.text.out	0x4300441a	0x14	C:\compile_tools\LLVM\4.0.3\armv7m-none-eabi\libc\lib/libc.a(vfprintf.o)	#SHT_PROGBITS,SHF_ALLOC|SHF_EXECINSTR,2
	0x4300441a		$t
	0x4300441b		out
.text.getint	0x4300442e	0x1e	C:\compile_tools\LLVM\4.0.3\armv7m-none-eabi\libc\lib/libc.a(vfprintf.o)	#SHT_PROGBITS,SHF_ALLOC|SHF_EXECINSTR,2
	0x4300442e		$t
	0x4300442f		getint
.text.pop_arg	0x4300444c	0x80	C:\compile_tools\LLVM\4.0.3\armv7m-none-eabi\libc\lib/libc.a(vfprintf.o)	#SHT_PROGBITS,SHF_ALLOC|SHF_EXECINSTR,4
	0x4300444c		$t
	0x4300444d		pop_arg
	0x4300445a		$d
	0x43004464		$t
.text.pad	0x430044cc	0x4e	C:\compile_tools\LLVM\4.0.3\armv7m-none-eabi\libc\lib/libc.a(vfprintf.o)	#SHT_PROGBITS,SHF_ALLOC|SHF_EXECINSTR,2
	0x430044cc		$t
	0x430044cd		pad
.text.__fwritex	0x4300451a	0x76	C:\compile_tools\LLVM\4.0.3\armv7m-none-eabi\libc\lib/libc.a(fwrite.o)	#SHT_PROGBITS,SHF_ALLOC|SHF_EXECINSTR,2
	0x4300451a		$t
	0x4300451b		__fwritex
.text.fwrite	0x43004590	0x58	C:\compile_tools\LLVM\4.0.3\armv7m-none-eabi\libc\lib/libc.a(fwrite.o)	#SHT_PROGBITS,SHF_ALLOC|SHF_EXECINSTR,2
	0x43004590		$t
	0x43004591		fwrite
	0x43004591		fwrite_unlocked
.text.snprintf	0x430045e8	0x16	C:\compile_tools\LLVM\4.0.3\armv7m-none-eabi\libc\lib/libc.a(snprintf.o)	#SHT_PROGBITS,SHF_ALLOC|SHF_EXECINSTR,2
	0x430045e8		$t
	0x430045e9		snprintf
PADDING_ALIGNMENT	0x430045fe	0x2	0x0
.text.vsnprintf_full	0x43004600	0x74	C:\compile_tools\LLVM\4.0.3\armv7m-none-eabi\libc\lib/libc.a(vsnprintf.o)	#SHT_PROGBITS,SHF_ALLOC|SHF_EXECINSTR,4
	0x43004600		$t
	0x43004601		vsnprintf_full
	0x4300466c		$d
.text.sn_write	0x43004674	0x22	C:\compile_tools\LLVM\4.0.3\armv7m-none-eabi\libc\lib/libc.a(vsnprintf.o)	#SHT_PROGBITS,SHF_ALLOC|SHF_EXECINSTR,2
	0x43004674		$t
	0x43004675		sn_write
.text.__aeabi_memclr	0x43004696	0x8	C:\compile_tools\LLVM\4.0.3\armv7m-none-eabi\libc\lib/libc.a(__aeabi_memclr.o)	#SHT_PROGBITS,SHF_ALLOC|SHF_EXECINSTR,2
	0x43004696		$t
	0x43004697		__aeabi_memclr
	0x43004697		__aeabi_memclr4
	0x43004697		__aeabi_memclr8
.text.__aeabi_memcpy	0x4300469e	0x4	C:\compile_tools\LLVM\4.0.3\armv7m-none-eabi\libc\lib/libc.a(__aeabi_memcpy.o)	#SHT_PROGBITS,SHF_ALLOC|SHF_EXECINSTR,2
	0x4300469e		$t
	0x4300469f		__aeabi_memcpy
	0x4300469f		__aeabi_memcpy4
	0x4300469f		__aeabi_memcpy8
.text	0x430046a2	0x2ee	C:\compile_tools\LLVM\4.0.3\armv7m-none-eabi\libc\lib/libc.a(memcpy_le.o)	#SHT_PROGBITS,SHF_ALLOC|SHF_EXECINSTR,2
	0x430046a2		$t
	0x430046a3		memcpy
	0x430046e2		src_aligned
	0x43004730		congruent_aligned32
	0x43004730		cached_aligned32
	0x43004746		less_than_32_left
	0x43004794		non_congruent
	0x43004810		loop16
	0x4300486c		loop8
	0x430048c8		loop24
	0x43004920		less_than_thirtytwo
	0x4300494a		partial_word_tail
	0x43004966		copy_last_3_and_return
.text	0x43004990	0x68	C:\compile_tools\LLVM\4.0.3\armv7m-none-eabi\libc\lib/libc.a(memset_nofp_armv7.o)	#SHT_PROGBITS,SHF_ALLOC|SHF_EXECINSTR,4
	0x43004990		$t
	0x43004991		memset
.text.memchr	0x430049f8	0x5c	C:\compile_tools\LLVM\4.0.3\armv7m-none-eabi\libc\lib/libc.a(memchr.o)	#SHT_PROGBITS,SHF_ALLOC|SHF_EXECINSTR,2
	0x430049f8		$t
	0x430049f9		memchr
.text.memcmp	0x43004a54	0x1c	C:\compile_tools\LLVM\4.0.3\armv7m-none-eabi\libc\lib/libc.a(memcmp.o)	#SHT_PROGBITS,SHF_ALLOC|SHF_EXECINSTR,2
	0x43004a54		$t
	0x43004a55		memcmp
.text.__strchrnul	0x43004a70	0x5c	C:\compile_tools\LLVM\4.0.3\armv7m-none-eabi\libc\lib/libc.a(strchrnul.o)	#SHT_PROGBITS,SHF_ALLOC|SHF_EXECINSTR,2
	0x43004a70		$t
	0x43004a71		__strchrnul
	0x43004a71		strchrnul
.text.strlen	0x43004acc	0x34	C:\compile_tools\LLVM\4.0.3\armv7m-none-eabi\libc\lib/libc.a(strlen.o)	#SHT_PROGBITS,SHF_ALLOC|SHF_EXECINSTR,2
	0x43004acc		$t
	0x43004acd		strlen
.text.__lock	0x43004b00	0x38	C:\compile_tools\LLVM\4.0.3\armv7m-none-eabi\libc\lib/libc.a(__lock.o)	#SHT_PROGBITS,SHF_ALLOC|SHF_EXECINSTR,4
	0x43004b00		$t
	0x43004b01		__lock
	0x43004b34		$d
.text.__unlock	0x43004b38	0x32	C:\compile_tools\LLVM\4.0.3\armv7m-none-eabi\libc\lib/libc.a(__lock.o)	#SHT_PROGBITS,SHF_ALLOC|SHF_EXECINSTR,2
	0x43004b38		$t
	0x43004b39		__unlock
.text.__syscall3	0x43004b6a	0xa	C:\compile_tools\LLVM\4.0.3\armv7m-none-eabi\libc\lib/libc.a(__lock.o)	#SHT_PROGBITS,SHF_ALLOC|SHF_EXECINSTR,2
	0x43004b6a		$t
	0x43004b6b		__syscall3
.text.__wait	0x43004b74	0x64	C:\compile_tools\LLVM\4.0.3\armv7m-none-eabi\libc\lib/libc.a(__wait.o)	#SHT_PROGBITS,SHF_ALLOC|SHF_EXECINSTR,2
	0x43004b74		$t
	0x43004b75		__wait
.text.__syscall4	0x43004bd8	0xa	C:\compile_tools\LLVM\4.0.3\armv7m-none-eabi\libc\lib/libc.a(__wait.o)	#SHT_PROGBITS,SHF_ALLOC|SHF_EXECINSTR,2
	0x43004bd8		$t
	0x43004bd9		__syscall4
.text.a_fetch_add	0x43004be2	0x18	C:\compile_tools\LLVM\4.0.3\armv7m-none-eabi\libc\lib/libc.a(__wait.o)	#SHT_PROGBITS,SHF_ALLOC|SHF_EXECINSTR,2
	0x43004be2		$t
	0x43004be3		a_fetch_add
.text.__errno_location	0x43004bfa	0x8	C:\compile_tools\LLVM\4.0.3\armv7m-none-eabi\libc\lib/libc.a(__errno_location.o)	#SHT_PROGBITS,SHF_ALLOC|SHF_EXECINSTR,2
	0x43004bfa		$t
	0x43004bfb		__errno_location
PADDING_ALIGNMENT	0x43004c02	0x2	0x0
.text.__strerror_l	0x43004c04	0x3c	C:\compile_tools\LLVM\4.0.3\armv7m-none-eabi\libc\lib/libc.a(strerror.o)	#SHT_PROGBITS,SHF_ALLOC|SHF_EXECINSTR,4
	0x43004c04		$t
	0x43004c05		__strerror_l
	0x43004c05		strerror_l
	0x43004c38		$d
.text.strerror	0x43004c40	0xc	C:\compile_tools\LLVM\4.0.3\armv7m-none-eabi\libc\lib/libc.a(strerror.o)	#SHT_PROGBITS,SHF_ALLOC|SHF_EXECINSTR,2
	0x43004c40		$t
	0x43004c41		strerror
.text.dummy	0x43004c4c	0x2	C:\compile_tools\LLVM\4.0.3\armv7m-none-eabi\libc\lib/libc.a(__lctrans.o)	#SHT_PROGBITS,SHF_ALLOC|SHF_EXECINSTR,2
	0x43004c4c		$t
	0x43004c4d		dummy
.text.__lctrans	0x43004c4e	0x4	C:\compile_tools\LLVM\4.0.3\armv7m-none-eabi\libc\lib/libc.a(__lctrans.o)	#SHT_PROGBITS,SHF_ALLOC|SHF_EXECINSTR,2
	0x43004c4e		$t
	0x43004c4f		__lctrans
.text.__lctrans_cur	0x43004c52	0xe	C:\compile_tools\LLVM\4.0.3\armv7m-none-eabi\libc\lib/libc.a(__lctrans.o)	#SHT_PROGBITS,SHF_ALLOC|SHF_EXECINSTR,2
	0x43004c52		$t
	0x43004c53		__lctrans_cur
.text.__lctrans_impl	0x43004c60	0x1e	C:\compile_tools\LLVM\4.0.3\armv7m-none-eabi\libc\lib/libc.a(locale_map.o)	#SHT_PROGBITS,SHF_ALLOC|SHF_EXECINSTR,2
	0x43004c60		$t
	0x43004c61		__lctrans_impl
PADDING_ALIGNMENT	0x43004c7e	0x2	0x0
.text.__get_locale	0x43004c80	0x1e8	C:\compile_tools\LLVM\4.0.3\armv7m-none-eabi\libc\lib/libc.a(locale_map.o)	#SHT_PROGBITS,SHF_ALLOC|SHF_EXECINSTR,4
	0x43004c80		$t
	0x43004c81		__get_locale
	0x43004e44		$d
.text.malloc	0x43004e68	0x1b8	C:\compile_tools\LLVM\4.0.3\armv7m-none-eabi\libc\lib/libc.a(malloc.o)	#SHT_PROGBITS,SHF_ALLOC|SHF_EXECINSTR,4
	0x43004e68		$t
	0x43004e69		malloc
	0x43005008		$d
.text.adjust_size	0x43005020	0x34	C:\compile_tools\LLVM\4.0.3\armv7m-none-eabi\libc\lib/libc.a(malloc.o)	#SHT_PROGBITS,SHF_ALLOC|SHF_EXECINSTR,4
	0x43005020		$t
	0x43005021		adjust_size
	0x43005050		$d
.text.alloc_rev	0x43005054	0x40	C:\compile_tools\LLVM\4.0.3\armv7m-none-eabi\libc\lib/libc.a(malloc.o)	#SHT_PROGBITS,SHF_ALLOC|SHF_EXECINSTR,2
	0x43005054		$t
	0x43005055		alloc_rev
.text.lock_bin	0x43005094	0x28	C:\compile_tools\LLVM\4.0.3\armv7m-none-eabi\libc\lib/libc.a(malloc.o)	#SHT_PROGBITS,SHF_ALLOC|SHF_EXECINSTR,4
	0x43005094		$t
	0x43005095		lock_bin
	0x430050b8		$d
.text.unbin	0x430050bc	0x68	C:\compile_tools\LLVM\4.0.3\armv7m-none-eabi\libc\lib/libc.a(malloc.o)	#SHT_PROGBITS,SHF_ALLOC|SHF_EXECINSTR,4
	0x430050bc		$t
	0x430050bd		unbin
	0x43005120		$d
.text.unlock_bin	0x43005124	0x10	C:\compile_tools\LLVM\4.0.3\armv7m-none-eabi\libc\lib/libc.a(malloc.o)	#SHT_PROGBITS,SHF_ALLOC|SHF_EXECINSTR,4
	0x43005124		$t
	0x43005125		unlock_bin
	0x43005130		$d
.text.trim	0x43005134	0x32	C:\compile_tools\LLVM\4.0.3\armv7m-none-eabi\libc\lib/libc.a(malloc.o)	#SHT_PROGBITS,SHF_ALLOC|SHF_EXECINSTR,2
	0x43005134		$t
	0x43005135		trim
.text.__malloc0	0x43005166	0x2a	C:\compile_tools\LLVM\4.0.3\armv7m-none-eabi\libc\lib/libc.a(malloc.o)	#SHT_PROGBITS,SHF_ALLOC|SHF_EXECINSTR,2
	0x43005166		$t
	0x43005167		__malloc0
.text.realloc	0x43005190	0x108	C:\compile_tools\LLVM\4.0.3\armv7m-none-eabi\libc\lib/libc.a(malloc.o)	#SHT_PROGBITS,SHF_ALLOC|SHF_EXECINSTR,2
	0x43005190		$t
	0x43005191		realloc
	0x430051ce		$d
	0x430051d0		$t
	0x43005230		$d
	0x43005232		$t
.text.free	0x43005298	0x178	C:\compile_tools\LLVM\4.0.3\armv7m-none-eabi\libc\lib/libc.a(malloc.o)	#SHT_PROGBITS,SHF_ALLOC|SHF_EXECINSTR,4
	0x43005298		$t
	0x43005299		free
	0x430052c0		$d
	0x430052c2		$t
	0x430052d2		$d
	0x430052d4		$t
	0x4300540c		$d
.text.alloc_fwd	0x43005410	0x3c	C:\compile_tools\LLVM\4.0.3\armv7m-none-eabi\libc\lib/libc.a(malloc.o)	#SHT_PROGBITS,SHF_ALLOC|SHF_EXECINSTR,2
	0x43005410		$t
	0x43005411		alloc_fwd
.text.bin_index	0x4300544c	0x2c	C:\compile_tools\LLVM\4.0.3\armv7m-none-eabi\libc\lib/libc.a(malloc.o)	#SHT_PROGBITS,SHF_ALLOC|SHF_EXECINSTR,4
	0x4300544c		$t
	0x4300544d		bin_index
	0x43005474		$d
.text.lock	0x43005478	0x3c	C:\compile_tools\LLVM\4.0.3\armv7m-none-eabi\libc\lib/libc.a(malloc.o)	#SHT_PROGBITS,SHF_ALLOC|SHF_EXECINSTR,4
	0x43005478		$t
	0x43005479		lock
	0x430054b0		$d
.text.unlock	0x430054b4	0x32	C:\compile_tools\LLVM\4.0.3\armv7m-none-eabi\libc\lib/libc.a(malloc.o)	#SHT_PROGBITS,SHF_ALLOC|SHF_EXECINSTR,2
	0x430054b4		$t
	0x430054b5		unlock
.text.a_and	0x430054e6	0x22	C:\compile_tools\LLVM\4.0.3\armv7m-none-eabi\libc\lib/libc.a(malloc.o)	#SHT_PROGBITS,SHF_ALLOC|SHF_EXECINSTR,2
	0x430054e6		$t
	0x430054e7		a_and
.text.a_sc	0x43005508	0xe	C:\compile_tools\LLVM\4.0.3\armv7m-none-eabi\libc\lib/libc.a(malloc.o)	#SHT_PROGBITS,SHF_ALLOC|SHF_EXECINSTR,2
	0x43005508		$t
	0x43005509		a_sc
.text.__syscall3	0x43005516	0xa	C:\compile_tools\LLVM\4.0.3\armv7m-none-eabi\libc\lib/libc.a(malloc.o)	#SHT_PROGBITS,SHF_ALLOC|SHF_EXECINSTR,2
	0x43005516		$t
	0x43005517		__syscall3
.text.a_or	0x43005520	0x22	C:\compile_tools\LLVM\4.0.3\armv7m-none-eabi\libc\lib/libc.a(malloc.o)	#SHT_PROGBITS,SHF_ALLOC|SHF_EXECINSTR,2
	0x43005520		$t
	0x43005521		a_or
.text.__madvise	0x43005542	0xe	C:\compile_tools\LLVM\4.0.3\armv7m-none-eabi\libc\lib/libc.a(madvise.o)	#SHT_PROGBITS,SHF_ALLOC|SHF_EXECINSTR,2
	0x43005542		$t
	0x43005543		__madvise
	0x43005543		madvise
.text.dummy	0x43005550	0x2	C:\compile_tools\LLVM\4.0.3\armv7m-none-eabi\libc\lib/libc.a(mremap.o)	#SHT_PROGBITS,SHF_ALLOC|SHF_EXECINSTR,2
	0x43005550		$t
	0x43005551		dummy
	0x43005551		__vm_wait
PADDING_ALIGNMENT	0x43005552	0x2	0x0
.text.__mremap	0x43005554	0x54	C:\compile_tools\LLVM\4.0.3\armv7m-none-eabi\libc\lib/libc.a(mremap.o)	#SHT_PROGBITS,SHF_ALLOC|SHF_EXECINSTR,4
	0x43005554		$t
	0x43005555		__mremap
	0x43005555		mremap
	0x430055a4		$d
.text.dummy	0x430055a8	0x2	C:\compile_tools\LLVM\4.0.3\armv7m-none-eabi\libc\lib/libc.a(munmap.o)	#SHT_PROGBITS,SHF_ALLOC|SHF_EXECINSTR,2
	0x430055a8		$t
	0x430055a9		dummy
.text.__munmap	0x430055aa	0x1a	C:\compile_tools\LLVM\4.0.3\armv7m-none-eabi\libc\lib/libc.a(munmap.o)	#SHT_PROGBITS,SHF_ALLOC|SHF_EXECINSTR,2
	0x430055aa		$t
	0x430055ab		__munmap
	0x430055ab		munmap
.text.wctomb	0x430055c4	0xc	C:\compile_tools\LLVM\4.0.3\armv7m-none-eabi\libc\lib/libc.a(wctomb.o)	#SHT_PROGBITS,SHF_ALLOC|SHF_EXECINSTR,2
	0x430055c4		$t
	0x430055c5		wctomb
.text.__towrite	0x430055d0	0x38	C:\compile_tools\LLVM\4.0.3\armv7m-none-eabi\libc\lib/libc.a(__towrite.o)	#SHT_PROGBITS,SHF_ALLOC|SHF_EXECINSTR,2
	0x430055d0		$t
	0x430055d1		__towrite
.text.__towrite_needs_stdio_exit	0x43005608	0x4	C:\compile_tools\LLVM\4.0.3\armv7m-none-eabi\libc\lib/libc.a(__towrite.o)	#SHT_PROGBITS,SHF_ALLOC|SHF_EXECINSTR,2
	0x43005608		$t
	0x43005609		__towrite_needs_stdio_exit
.text.__lockfile	0x4300560c	0x4	C:\compile_tools\LLVM\4.0.3\armv7m-none-eabi\libc\lib/libc.a(__lockfile.o)	#SHT_PROGBITS,SHF_ALLOC|SHF_EXECINSTR,2
	0x4300560c		$t
	0x4300560d		__lockfile
.text.__unlockfile	0x43005610	0x2	C:\compile_tools\LLVM\4.0.3\armv7m-none-eabi\libc\lib/libc.a(__lockfile.o)	#SHT_PROGBITS,SHF_ALLOC|SHF_EXECINSTR,2
	0x43005610		$t
	0x43005611		__unlockfile
.text.strcmp	0x43005612	0x14	C:\compile_tools\LLVM\4.0.3\armv7m-none-eabi\libc\lib/libc.a(strcmp.o)	#SHT_PROGBITS,SHF_ALLOC|SHF_EXECINSTR,2
	0x43005612		$t
	0x43005613		strcmp
PADDING_ALIGNMENT	0x43005626	0x2	0x0
.text.__map_file	0x43005628	0x58	C:\compile_tools\LLVM\4.0.3\armv7m-none-eabi\libc\lib/libc.a(__map_file.o)	#SHT_PROGBITS,SHF_ALLOC|SHF_EXECINSTR,4
	0x43005628		$t
	0x43005629		__map_file
	0x4300567c		$d
.text.getenv	0x43005680	0x5c	C:\compile_tools\LLVM\4.0.3\armv7m-none-eabi\libc\lib/libc.a(getenv.o)	#SHT_PROGBITS,SHF_ALLOC|SHF_EXECINSTR,4
	0x43005680		$t
	0x43005681		getenv
	0x430056d8		$d
.text.__syscall_ret	0x430056dc	0x20	C:\compile_tools\LLVM\4.0.3\armv7m-none-eabi\libc\lib/libc.a(syscall_ret.o)	#SHT_PROGBITS,SHF_ALLOC|SHF_EXECINSTR,4
	0x430056dc		$t
	0x430056dd		__syscall_ret
	0x430056f8		$d
.text.__mo_lookup	0x430056fc	0xd8	C:\compile_tools\LLVM\4.0.3\armv7m-none-eabi\libc\lib/libc.a(__mo_lookup.o)	#SHT_PROGBITS,SHF_ALLOC|SHF_EXECINSTR,4
	0x430056fc		$t
	0x430056fd		__mo_lookup
	0x430057d0		$d
.text.__expand_heap	0x430057d4	0x50	C:\compile_tools\LLVM\4.0.3\armv7m-none-eabi\libc\lib/libc.a(expand_heap.o)	#SHT_PROGBITS,SHF_ALLOC|SHF_EXECINSTR,4
	0x430057d4		$t
	0x430057d5		__expand_heap
	0x43005818		$d
.text.dummy	0x43005824	0x2	C:\compile_tools\LLVM\4.0.3\armv7m-none-eabi\libc\lib/libc.a(mmap.o)	#SHT_PROGBITS,SHF_ALLOC|SHF_EXECINSTR,2
	0x43005824		$t
	0x43005825		dummy
PADDING_ALIGNMENT	0x43005826	0x2	0x0
.text.__mmap	0x43005828	0x60	C:\compile_tools\LLVM\4.0.3\armv7m-none-eabi\libc\lib/libc.a(mmap.o)	#SHT_PROGBITS,SHF_ALLOC|SHF_EXECINSTR,4
	0x43005828		$t
	0x43005829		__mmap
	0x43005829		mmap
	0x43005829		mmap64
	0x43005884		$d
.text.wcrtomb	0x43005888	0xb0	C:\compile_tools\LLVM\4.0.3\armv7m-none-eabi\libc\lib/libc.a(wcrtomb.o)	#SHT_PROGBITS,SHF_ALLOC|SHF_EXECINSTR,2
	0x43005888		$t
	0x43005889		wcrtomb
.text.__stdio_exit	0x43005938	0x30	C:\compile_tools\LLVM\4.0.3\armv7m-none-eabi\libc\lib/libc.a(__stdio_exit.o)	#SHT_PROGBITS,SHF_ALLOC|SHF_EXECINSTR,4
	0x43005938		$t
	0x43005939		__stdio_exit
	0x43005939		__stdio_exit_needed
	0x43005960		$d
.text.close_file	0x43005968	0x3c	C:\compile_tools\LLVM\4.0.3\armv7m-none-eabi\libc\lib/libc.a(__stdio_exit.o)	#SHT_PROGBITS,SHF_ALLOC|SHF_EXECINSTR,2
	0x43005968		$t
	0x43005969		close_file
.text.__ofl_lock	0x430059a4	0x8	C:\compile_tools\LLVM\4.0.3\armv7m-none-eabi\libc\lib/libc.a(ofl.o)	#SHT_PROGBITS,SHF_ALLOC|SHF_EXECINSTR,4
	0x430059a4		$t
	0x430059a5		__ofl_lock
	0x430059a8		$d
.text.__ofl_unlock	0x430059ac	0x2	C:\compile_tools\LLVM\4.0.3\armv7m-none-eabi\libc\lib/libc.a(ofl.o)	#SHT_PROGBITS,SHF_ALLOC|SHF_EXECINSTR,2
	0x430059ac		$t
	0x430059ad		__ofl_unlock
.text.strchr	0x430059ae	0x14	C:\compile_tools\LLVM\4.0.3\armv7m-none-eabi\libc\lib/libc.a(strchr.o)	#SHT_PROGBITS,SHF_ALLOC|SHF_EXECINSTR,2
	0x430059ae		$t
	0x430059af		strchr
.text.strncmp	0x430059c2	0x28	C:\compile_tools\LLVM\4.0.3\armv7m-none-eabi\libc\lib/libc.a(strncmp.o)	#SHT_PROGBITS,SHF_ALLOC|SHF_EXECINSTR,2
	0x430059c2		$t
	0x430059c3		strncmp
PADDING_ALIGNMENT	0x430059ea	0x2	0x0
.text.__brk	0x430059ec	0x78	C:\compile_tools\LLVM\4.0.3\armv7m-none-eabi\libc\lib/libc.a(__brk.o)	#SHT_PROGBITS,SHF_ALLOC|SHF_EXECINSTR,4
	0x430059ec		$t
	0x430059ed		__brk
	0x43005a4c		$d
.text	0x43005a64	0x14	C:\compile_tools\LLVM\4.0.3\lib\clang\4.0.3\lib\baremetal/libclang_rt.builtins-armv7m.a(aeabi_uldivmod.S.obj)	#SHT_PROGBITS,SHF_ALLOC|SHF_EXECINSTR,4
	0x43005a64		$t.0
	0x43005a65		__aeabi_uldivmod
.text.__extendsfdf2	0x43005a78	0x78	C:\compile_tools\LLVM\4.0.3\lib\clang\4.0.3\lib\baremetal/libclang_rt.builtins-armv7m.a(extendsfdf2.c.obj)	#SHT_PROGBITS,SHF_ALLOC|SHF_EXECINSTR,4
	0x43005a78		$t.0
	0x43005a79		__aeabi_f2d
	0x43005a79		__extendsfdf2
	0x43005aec		$d.1
.text.__fixunsdfsi	0x43005af0	0x58	C:\compile_tools\LLVM\4.0.3\lib\clang\4.0.3\lib\baremetal/libclang_rt.builtins-armv7m.a(fixunsdfsi.c.obj)	#SHT_PROGBITS,SHF_ALLOC|SHF_EXECINSTR,4
	0x43005af0		$t.0
	0x43005af1		__aeabi_d2uiz
	0x43005af1		__fixunsdfsi
	0x43005b44		$d.1
.text.__floatsisf	0x43005b48	0x62	C:\compile_tools\LLVM\4.0.3\lib\clang\4.0.3\lib\baremetal/libclang_rt.builtins-armv7m.a(floatsisf.c.obj)	#SHT_PROGBITS,SHF_ALLOC|SHF_EXECINSTR,2
	0x43005b48		$t.0
	0x43005b49		__aeabi_i2f
	0x43005b49		__floatsisf
.text.__muldf3	0x43005bac	0x32c	C:\compile_tools\LLVM\4.0.3\lib\clang\4.0.3\lib\baremetal/libclang_rt.builtins-armv7m.a(muldf3.c.obj)	#SHT_PROGBITS,SHF_ALLOC|SHF_EXECINSTR,4
	0x43005bac		$t.0
	0x43005bad		__aeabi_dmul
	0x43005bad		__muldf3
	0x43005ec4		$d.1
.text.normalize	0x43005ed8	0x46	C:\compile_tools\LLVM\4.0.3\lib\clang\4.0.3\lib\baremetal/libclang_rt.builtins-armv7m.a(muldf3.c.obj)	#SHT_PROGBITS,SHF_ALLOC|SHF_EXECINSTR,2
	0x43005ed8		$t.2
	0x43005ed9		normalize
.text.__mulsf3	0x43005f20	0x13c	C:\compile_tools\LLVM\4.0.3\lib\clang\4.0.3\lib\baremetal/libclang_rt.builtins-armv7m.a(mulsf3.c.obj)	#SHT_PROGBITS,SHF_ALLOC|SHF_EXECINSTR,4
	0x43005f20		$t.0
	0x43005f21		__aeabi_fmul
	0x43005f21		__mulsf3
	0x43006054		$d.1
.text.normalize	0x4300605c	0x14	C:\compile_tools\LLVM\4.0.3\lib\clang\4.0.3\lib\baremetal/libclang_rt.builtins-armv7m.a(mulsf3.c.obj)	#SHT_PROGBITS,SHF_ALLOC|SHF_EXECINSTR,2
	0x4300605c		$t.2
	0x4300605d		normalize
.text.__udivmoddi4	0x43006070	0x1d4	C:\compile_tools\LLVM\4.0.3\lib\clang\4.0.3\lib\baremetal/libclang_rt.builtins-armv7m.a(udivmoddi4.c.obj)	#SHT_PROGBITS,SHF_ALLOC|SHF_EXECINSTR,2
	0x43006070		$t.0
	0x43006071		__udivmoddi4
*(Init )
*(.rodata .rodata.* )
.rodata.str1.1	0x43006244	0x5	./quectel/example/build/example_atfwd.o	#SHT_PROGBITS,SHF_ALLOC|SHF_MERGE|SHF_STRINGS,1
	0x43006244		.L.str
.rodata.str1.1	0x43006249	0x2	./quectel/example/build/example_atfwd.o	#SHT_PROGBITS,SHF_ALLOC|SHF_MERGE|SHF_STRINGS,1
	0x43006249		.L.str.1
.rodata.str1.1	0x4300624b	0x6	./quectel/example/build/example_atfwd.o	#SHT_PROGBITS,SHF_ALLOC|SHF_MERGE|SHF_STRINGS,1
	0x4300624b		.L.str.2
.rodata.str1.1	0x43006251	0x2	./quectel/example/build/example_atfwd.o	#SHT_PROGBITS,SHF_ALLOC|SHF_MERGE|SHF_STRINGS,1
	0x43006251		.L.str.3
.rodata.str1.1	0x43006253	0x2a	./quectel/example/build/example_atfwd.o	#SHT_PROGBITS,SHF_ALLOC|SHF_MERGE|SHF_STRINGS,1
	0x43006253		.L.str.4
.rodata.str1.1	0x4300627d	0x28	./quectel/example/build/example_atfwd.o	#SHT_PROGBITS,SHF_ALLOC|SHF_MERGE|SHF_STRINGS,1
	0x4300627d		.L.str.5
.rodata.str1.1	0x430062a5	0x1a	./quectel/example/build/example_atfwd.o	#SHT_PROGBITS,SHF_ALLOC|SHF_MERGE|SHF_STRINGS,1
	0x430062a5		.L.str.6
.rodata.str1.1	0x430062bf	0x1b	./quectel/example/build/example_atfwd.o	#SHT_PROGBITS,SHF_ALLOC|SHF_MERGE|SHF_STRINGS,1
	0x430062bf		.L.str.7
.rodata.str1.1	0x430062da	0x2e	./quectel/example/build/example_atfwd.o	#SHT_PROGBITS,SHF_ALLOC|SHF_MERGE|SHF_STRINGS,1
	0x430062da		.L.str.8
.rodata.str1.1	0x43006308	0x1e	./quectel/example/build/example_atfwd.o	#SHT_PROGBITS,SHF_ALLOC|SHF_MERGE|SHF_STRINGS,1
	0x43006308		.L.str.9
.rodata.str1.1	0x43006326	0x2b	./quectel/example/build/example_atfwd.o	#SHT_PROGBITS,SHF_ALLOC|SHF_MERGE|SHF_STRINGS,1
	0x43006326		.L.str.10
.rodata.str1.1	0x43006351	0x32	./quectel/example/build/example_atfwd.o	#SHT_PROGBITS,SHF_ALLOC|SHF_MERGE|SHF_STRINGS,1
	0x43006351		.L.str.11
.rodata.str1.1	0x43006383	0x19	./quectel/example/build/example_atfwd.o	#SHT_PROGBITS,SHF_ALLOC|SHF_MERGE|SHF_STRINGS,1
	0x43006383		.L.str.12
.rodata.str1.1	0x4300639c	0x19	./quectel/example/build/example_atfwd.o	#SHT_PROGBITS,SHF_ALLOC|SHF_MERGE|SHF_STRINGS,1
	0x4300639c		.L.str.13
.rodata.str1.1	0x430063b5	0xe	./quectel/example/build/example_atfwd.o	#SHT_PROGBITS,SHF_ALLOC|SHF_MERGE|SHF_STRINGS,1
	0x430063b5		.L.str.14
.rodata.str1.1	0x430063c3	0x1e	./quectel/example/build/example_atfwd.o	#SHT_PROGBITS,SHF_ALLOC|SHF_MERGE|SHF_STRINGS,1
	0x430063c3		.L.str.15
.rodata.str1.1	0x430063e1	0x25	./quectel/example/build/example_atfwd.o	#SHT_PROGBITS,SHF_ALLOC|SHF_MERGE|SHF_STRINGS,1
	0x430063e1		.L.str.16
.rodata.str1.1	0x43006406	0x21	./quectel/example/build/example_atfwd.o	#SHT_PROGBITS,SHF_ALLOC|SHF_MERGE|SHF_STRINGS,1
	0x43006406		.L.str.17
.rodata.str1.1	0x43006427	0x20	./quectel/example/build/example_atfwd.o	#SHT_PROGBITS,SHF_ALLOC|SHF_MERGE|SHF_STRINGS,1
	0x43006427		.L.str.18
.rodata.str1.1	0x43006447	0x1e	./quectel/example/build/example_atfwd.o	#SHT_PROGBITS,SHF_ALLOC|SHF_MERGE|SHF_STRINGS,1
	0x43006447		.L.str.19
.rodata.str1.1	0x43006465	0x28	./quectel/example/build/example_atfwd.o	#SHT_PROGBITS,SHF_ALLOC|SHF_MERGE|SHF_STRINGS,1
	0x43006465		.L.str.20
.rodata.str1.1	0x4300648d	0x36	./quectel/example/build/example_atfwd.o	#SHT_PROGBITS,SHF_ALLOC|SHF_MERGE|SHF_STRINGS,1
	0x4300648d		.L.str.21
.rodata.str1.1	0x430064c3	0x19	./quectel/example/build/example_atfwd.o	#SHT_PROGBITS,SHF_ALLOC|SHF_MERGE|SHF_STRINGS,1
	0x430064c3		.L.str.22
.rodata.str1.1	0x430064dc	0x16	./quectel/example/build/example_atfwd.o	#SHT_PROGBITS,SHF_ALLOC|SHF_MERGE|SHF_STRINGS,1
	0x430064dc		.L.str.23
.rodata.str1.1	0x430064f2	0x34	./quectel/example/build/example_atfwd.o	#SHT_PROGBITS,SHF_ALLOC|SHF_MERGE|SHF_STRINGS,1
	0x430064f2		.L.str.24
.rodata.str1.1	0x43006526	0x27	./quectel/example/build/example_atfwd.o	#SHT_PROGBITS,SHF_ALLOC|SHF_MERGE|SHF_STRINGS,1
	0x43006526		.L.str.25
.rodata.str1.1	0x4300654d	0x17	./quectel/example/build/example_atfwd.o	#SHT_PROGBITS,SHF_ALLOC|SHF_MERGE|SHF_STRINGS,1
	0x4300654d		.L.str.26
.rodata.str1.1	0x43006564	0x14	./quectel/example/build/example_atfwd.o	#SHT_PROGBITS,SHF_ALLOC|SHF_MERGE|SHF_STRINGS,1
	0x43006564		.L.str.27
.rodata.str1.1	0x43006578	0xe	./quectel/example/build/example_atfwd.o	#SHT_PROGBITS,SHF_ALLOC|SHF_MERGE|SHF_STRINGS,1
	0x43006578		.L.str.28
.rodata.str1.1	0x43006586	0x26	./quectel/example/build/example_atfwd.o	#SHT_PROGBITS,SHF_ALLOC|SHF_MERGE|SHF_STRINGS,1
	0x43006586		.L.str.29
.rodata.str1.1	0x430065ac	0xd	./quectel/example/build/example_atfwd.o	#SHT_PROGBITS,SHF_ALLOC|SHF_MERGE|SHF_STRINGS,1
	0x430065ac		.L.str.30
.rodata.str1.1	0x430065b9	0xb	./quectel/example/build/example_atfwd.o	#SHT_PROGBITS,SHF_ALLOC|SHF_MERGE|SHF_STRINGS,1
	0x430065b9		.L.str.31
.rodata.str1.1	0x430065c4	0x23	./quectel/example/build/example_atfwd.o	#SHT_PROGBITS,SHF_ALLOC|SHF_MERGE|SHF_STRINGS,1
	0x430065c4		.L.str.32
.rodata.str1.1	0x430065e7	0x18	./quectel/example/build/example_atfwd.o	#SHT_PROGBITS,SHF_ALLOC|SHF_MERGE|SHF_STRINGS,1
	0x430065e7		.L.str.33
.rodata.str1.1	0x430065ff	0x5	./quectel/example/build/example_atfwd.o	#SHT_PROGBITS,SHF_ALLOC|SHF_MERGE|SHF_STRINGS,1
	0x430065ff		.L.str.34
.rodata.str1.1	0x43006604	0xe	./quectel/example/build/example_atfwd.o	#SHT_PROGBITS,SHF_ALLOC|SHF_MERGE|SHF_STRINGS,1
	0x43006604		.L.str.35
.rodata.str1.1	0x43006612	0x8	./quectel/example/build/example_atfwd.o	#SHT_PROGBITS,SHF_ALLOC|SHF_MERGE|SHF_STRINGS,1
	0x43006612		.L.str.36
.rodata.str1.1	0x4300661a	0x3	./quectel/example/build/example_atfwd.o	#SHT_PROGBITS,SHF_ALLOC|SHF_MERGE|SHF_STRINGS,1
.rodata.str1.1	0x4300661d	0x1	./quectel/example/build/example_atfwd.o	#SHT_PROGBITS,SHF_ALLOC|SHF_MERGE|SHF_STRINGS,1
	0x4300661d		.L.str.38
.rodata.str1.1	0x4300661e	0x17	./quectel/example/build/example_atfwd.o	#SHT_PROGBITS,SHF_ALLOC|SHF_MERGE|SHF_STRINGS,1
	0x4300661e		.L.str.39
.rodata.str1.1	0x43006635	0x24	./quectel/example/build/example_atfwd.o	#SHT_PROGBITS,SHF_ALLOC|SHF_MERGE|SHF_STRINGS,1
	0x43006635		.L.str.40
.rodata.str1.1	0x43006659	0x1d	./quectel/example/build/example_atfwd.o	#SHT_PROGBITS,SHF_ALLOC|SHF_MERGE|SHF_STRINGS,1
	0x43006659		.L.str.41
.rodata.str1.1	0x43006676	0x17	./quectel/example/build/example_atfwd.o	#SHT_PROGBITS,SHF_ALLOC|SHF_MERGE|SHF_STRINGS,1
	0x43006676		.L.str.42
.rodata.str1.1	0x4300668d	0x8	./quectel/example/build/example_atfwd.o	#SHT_PROGBITS,SHF_ALLOC|SHF_MERGE|SHF_STRINGS,1
	0x4300668d		.L.str.43
.rodata.str1.1	0x43006695	0x2c	./quectel/example/build/example_atfwd.o	#SHT_PROGBITS,SHF_ALLOC|SHF_MERGE|SHF_STRINGS,1
	0x43006695		.L.str.44
.rodata.str1.1	0x430066c1	0x26	./quectel/example/build/example_atfwd.o	#SHT_PROGBITS,SHF_ALLOC|SHF_MERGE|SHF_STRINGS,1
	0x430066c1		.L.str.45
.rodata.str1.1	0x430066e7	0x37	./quectel/example/build/example_atfwd.o	#SHT_PROGBITS,SHF_ALLOC|SHF_MERGE|SHF_STRINGS,1
	0x430066e7		.L.str.48
.rodata.str1.1	0x4300671e	0x44	./quectel/example/build/example_atfwd.o	#SHT_PROGBITS,SHF_ALLOC|SHF_MERGE|SHF_STRINGS,1
	0x4300671e		.L.str.49
.rodata.str1.1	0x43006762	0x2f	./quectel/example/build/example_atfwd.o	#SHT_PROGBITS,SHF_ALLOC|SHF_MERGE|SHF_STRINGS,1
	0x43006762		.L.str.50
.rodata.str1.1	0x43006791	0x31	./quectel/example/build/example_atfwd.o	#SHT_PROGBITS,SHF_ALLOC|SHF_MERGE|SHF_STRINGS,1
	0x43006791		.L.str.51
.rodata.str1.1	0x430067c2	0x3b	./quectel/example/build/example_atfwd.o	#SHT_PROGBITS,SHF_ALLOC|SHF_MERGE|SHF_STRINGS,1
	0x430067c2		.L.str.52
.rodata.str1.1	0x430067fd	0x2e	./quectel/example/build/example_atfwd.o	#SHT_PROGBITS,SHF_ALLOC|SHF_MERGE|SHF_STRINGS,1
	0x430067fd		.L.str.53
.rodata.str1.1	0x4300682b	0x26	./quectel/example/build/example_atfwd.o	#SHT_PROGBITS,SHF_ALLOC|SHF_MERGE|SHF_STRINGS,1
	0x4300682b		.L.str.54
.rodata.str1.1	0x43006851	0x24	./quectel/example/build/example_atfwd.o	#SHT_PROGBITS,SHF_ALLOC|SHF_MERGE|SHF_STRINGS,1
	0x43006851		.L.str.55
.rodata.str1.1	0x43006875	0x36	./quectel/example/build/example_atfwd.o	#SHT_PROGBITS,SHF_ALLOC|SHF_MERGE|SHF_STRINGS,1
	0x43006875		.L.str.56
.rodata.str1.1	0x430068ab	0x2a	./quectel/example/build/example_atfwd.o	#SHT_PROGBITS,SHF_ALLOC|SHF_MERGE|SHF_STRINGS,1
	0x430068ab		.L.str.57
.rodata.str1.1	0x430068d5	0x22	./quectel/example/build/example_atfwd.o	#SHT_PROGBITS,SHF_ALLOC|SHF_MERGE|SHF_STRINGS,1
	0x430068d5		.L.str.58
.rodata.str1.1	0x430068f7	0x3d	./quectel/example/build/example_atfwd.o	#SHT_PROGBITS,SHF_ALLOC|SHF_MERGE|SHF_STRINGS,1
	0x430068f7		.L.str.59
.rodata.str1.1	0x43006934	0x3d	./quectel/example/build/example_atfwd.o	#SHT_PROGBITS,SHF_ALLOC|SHF_MERGE|SHF_STRINGS,1
	0x43006934		.L.str.60
.rodata.str1.1	0x43006971	0x3a	./quectel/example/build/example_atfwd.o	#SHT_PROGBITS,SHF_ALLOC|SHF_MERGE|SHF_STRINGS,1
	0x43006971		.L.str.61
.rodata.str1.1	0x430069ab	0x3f	./quectel/example/build/example_atfwd.o	#SHT_PROGBITS,SHF_ALLOC|SHF_MERGE|SHF_STRINGS,1
	0x430069ab		.L.str.62
.rodata.str1.1	0x430069ea	0x2f	./quectel/example/build/example_atfwd.o	#SHT_PROGBITS,SHF_ALLOC|SHF_MERGE|SHF_STRINGS,1
	0x430069ea		.L.str.63
.rodata.str1.1	0x43006a19	0x29	./quectel/example/build/example_atfwd.o	#SHT_PROGBITS,SHF_ALLOC|SHF_MERGE|SHF_STRINGS,1
	0x43006a19		.L.str.64
.rodata.str1.1	0x43006a42	0x28	./quectel/example/build/example_atfwd.o	#SHT_PROGBITS,SHF_ALLOC|SHF_MERGE|SHF_STRINGS,1
	0x43006a42		.L.str.65
.rodata.str1.1	0x43006a6a	0x2a	./quectel/example/build/example_atfwd.o	#SHT_PROGBITS,SHF_ALLOC|SHF_MERGE|SHF_STRINGS,1
	0x43006a6a		.L.str.66
.rodata.str1.1	0x43006a94	0x27	./quectel/example/build/example_atfwd.o	#SHT_PROGBITS,SHF_ALLOC|SHF_MERGE|SHF_STRINGS,1
	0x43006a94		.L.str.67
.rodata.str1.1	0x43006abb	0x1d	./quectel/example/build/example_atfwd.o	#SHT_PROGBITS,SHF_ALLOC|SHF_MERGE|SHF_STRINGS,1
	0x43006abb		.L.str.68
.rodata.str1.1	0x43006ad8	0x2a	./quectel/example/build/example_atfwd.o	#SHT_PROGBITS,SHF_ALLOC|SHF_MERGE|SHF_STRINGS,1
	0x43006ad8		.L.str.69
.rodata.str1.1	0x43006b02	0x2	./quectel/example/build/example_atfwd.o	#SHT_PROGBITS,SHF_ALLOC|SHF_MERGE|SHF_STRINGS,1
	0x43006b02		.L.str.70
.rodata.str1.1	0x43006b04	0xc	./quectel/example/build/example_atfwd.o	#SHT_PROGBITS,SHF_ALLOC|SHF_MERGE|SHF_STRINGS,1
	0x43006b04		.L.str.71
.rodata.str1.1	0x43006b10	0x39	./quectel/example/build/example_atfwd.o	#SHT_PROGBITS,SHF_ALLOC|SHF_MERGE|SHF_STRINGS,1
	0x43006b10		.L.str.72
.rodata.str1.1	0x43006b49	0x18	./quectel/example/build/example_atfwd.o	#SHT_PROGBITS,SHF_ALLOC|SHF_MERGE|SHF_STRINGS,1
	0x43006b49		.L.str.73
.rodata.str1.1	0x43006b61	0x32	./quectel/example/build/example_atfwd.o	#SHT_PROGBITS,SHF_ALLOC|SHF_MERGE|SHF_STRINGS,1
	0x43006b61		.L.str.74
.rodata.str1.1	0x43006b93	0x13	./quectel/example/build/example_atfwd.o	#SHT_PROGBITS,SHF_ALLOC|SHF_MERGE|SHF_STRINGS,1
	0x43006b93		.L.str.76
.rodata.str1.1	0x43006ba6	0x13	./quectel/example/build/example_atfwd.o	#SHT_PROGBITS,SHF_ALLOC|SHF_MERGE|SHF_STRINGS,1
	0x43006ba6		.L.str.77
.rodata.str1.1	0x43006bb9	0x15	./quectel/example/build/example_atfwd.o	#SHT_PROGBITS,SHF_ALLOC|SHF_MERGE|SHF_STRINGS,1
	0x43006bb9		.L.str.78
.rodata.str1.1	0x43006bce	0x3d	./quectel/example/build/example_atfwd.o	#SHT_PROGBITS,SHF_ALLOC|SHF_MERGE|SHF_STRINGS,1
	0x43006bce		.L.str.79
.rodata.str1.1	0x43006c0b	0x2a	./quectel/example/build/example_atfwd.o	#SHT_PROGBITS,SHF_ALLOC|SHF_MERGE|SHF_STRINGS,1
	0x43006c0b		.L.str.80
.rodata.str1.1	0x43006c35	0x2d	./quectel/example/build/example_atfwd.o	#SHT_PROGBITS,SHF_ALLOC|SHF_MERGE|SHF_STRINGS,1
	0x43006c35		.L.str.81
.rodata.str1.1	0x43006c62	0x29	./quectel/example/build/example_atfwd.o	#SHT_PROGBITS,SHF_ALLOC|SHF_MERGE|SHF_STRINGS,1
	0x43006c62		.L.str.83
.rodata.str1.1	0x43006c8b	0xb	./quectel/example/build/example_atfwd.o	#SHT_PROGBITS,SHF_ALLOC|SHF_MERGE|SHF_STRINGS,1
	0x43006c8b		.L.str.84
.rodata.str1.1	0x43006c96	0x29	./quectel/example/build/example_atfwd.o	#SHT_PROGBITS,SHF_ALLOC|SHF_MERGE|SHF_STRINGS,1
	0x43006c96		.L.str.85
.rodata.str1.1	0x43006cbf	0xe	./quectel/example/build/example_atfwd.o	#SHT_PROGBITS,SHF_ALLOC|SHF_MERGE|SHF_STRINGS,1
	0x43006cbf		.L.str.86
.rodata.str1.1	0x43006ccd	0x31	./quectel/example/build/example_atfwd.o	#SHT_PROGBITS,SHF_ALLOC|SHF_MERGE|SHF_STRINGS,1
	0x43006ccd		.L.str.87
.rodata.str1.1	0x43006cfe	0x16	./quectel/example/build/example_atfwd.o	#SHT_PROGBITS,SHF_ALLOC|SHF_MERGE|SHF_STRINGS,1
	0x43006cfe		.L.str.88
.rodata.str1.1	0x43006d14	0x14	./quectel/example/build/example_atfwd.o	#SHT_PROGBITS,SHF_ALLOC|SHF_MERGE|SHF_STRINGS,1
	0x43006d14		.L.str.89
.rodata.str1.1	0x43006d28	0xc	./quectel/example/build/example_atfwd.o	#SHT_PROGBITS,SHF_ALLOC|SHF_MERGE|SHF_STRINGS,1
	0x43006d28		.L.str.90
.rodata.str1.1	0x43006d34	0x11	./quectel/example/build/example_atfwd.o	#SHT_PROGBITS,SHF_ALLOC|SHF_MERGE|SHF_STRINGS,1
	0x43006d34		.L.str.91
.rodata.str1.1	0x43006d45	0x3a	./quectel/example/build/example_atfwd.o	#SHT_PROGBITS,SHF_ALLOC|SHF_MERGE|SHF_STRINGS,1
	0x43006d45		.L.str.92
.rodata.str1.1	0x43006d7f	0x18	./quectel/example/build/example_atfwd.o	#SHT_PROGBITS,SHF_ALLOC|SHF_MERGE|SHF_STRINGS,1
	0x43006d7f		.L.str.93
.rodata.str1.1	0x43006d97	0x1c	./quectel/example/build/example_atfwd.o	#SHT_PROGBITS,SHF_ALLOC|SHF_MERGE|SHF_STRINGS,1
	0x43006d97		.L.str.94
.rodata.str1.1	0x43006db3	0x3	./quectel/example/build/example_atfwd.o	#SHT_PROGBITS,SHF_ALLOC|SHF_MERGE|SHF_STRINGS,1
	0x43006db3		.L.str.95
.rodata.str1.1	0x43006db6	0x1c	./quectel/example/build/example_atfwd.o	#SHT_PROGBITS,SHF_ALLOC|SHF_MERGE|SHF_STRINGS,1
	0x43006db6		.L.str.96
.rodata.str1.1	0x43006dd2	0x1c	./quectel/example/build/example_atfwd.o	#SHT_PROGBITS,SHF_ALLOC|SHF_MERGE|SHF_STRINGS,1
	0x43006dd2		.L.str.97
.rodata.str1.1	0x43006dee	0x1c	./quectel/example/build/example_atfwd.o	#SHT_PROGBITS,SHF_ALLOC|SHF_MERGE|SHF_STRINGS,1
	0x43006dee		.L.str.98
.rodata.str1.1	0x43006e0a	0x1c	./quectel/example/build/example_atfwd.o	#SHT_PROGBITS,SHF_ALLOC|SHF_MERGE|SHF_STRINGS,1
	0x43006e0a		.L.str.99
.rodata.str1.1	0x43006e26	0x1c	./quectel/example/build/example_atfwd.o	#SHT_PROGBITS,SHF_ALLOC|SHF_MERGE|SHF_STRINGS,1
	0x43006e26		.L.str.100
.rodata.str1.1	0x43006e42	0x1c	./quectel/example/build/example_atfwd.o	#SHT_PROGBITS,SHF_ALLOC|SHF_MERGE|SHF_STRINGS,1
	0x43006e42		.L.str.101
.rodata.str1.1	0x43006e5e	0x1c	./quectel/example/build/example_atfwd.o	#SHT_PROGBITS,SHF_ALLOC|SHF_MERGE|SHF_STRINGS,1
	0x43006e5e		.L.str.102
.rodata.str1.1	0x43006e7a	0x1c	./quectel/example/build/example_atfwd.o	#SHT_PROGBITS,SHF_ALLOC|SHF_MERGE|SHF_STRINGS,1
	0x43006e7a		.L.str.103
.rodata.str1.1	0x43006e96	0x1c	./quectel/example/build/example_atfwd.o	#SHT_PROGBITS,SHF_ALLOC|SHF_MERGE|SHF_STRINGS,1
	0x43006e96		.L.str.104
.rodata.str1.1	0x43006eb2	0x1c	./quectel/example/build/example_atfwd.o	#SHT_PROGBITS,SHF_ALLOC|SHF_MERGE|SHF_STRINGS,1
	0x43006eb2		.L.str.105
.rodata.str1.1	0x43006ece	0x1c	./quectel/example/build/example_atfwd.o	#SHT_PROGBITS,SHF_ALLOC|SHF_MERGE|SHF_STRINGS,1
	0x43006ece		.L.str.106
.rodata.str1.1	0x43006eea	0x1c	./quectel/example/build/example_atfwd.o	#SHT_PROGBITS,SHF_ALLOC|SHF_MERGE|SHF_STRINGS,1
	0x43006eea		.L.str.107
.rodata.str1.1	0x43006f06	0x1c	./quectel/example/build/example_atfwd.o	#SHT_PROGBITS,SHF_ALLOC|SHF_MERGE|SHF_STRINGS,1
	0x43006f06		.L.str.108
.rodata.str1.1	0x43006f22	0x1c	./quectel/example/build/example_atfwd.o	#SHT_PROGBITS,SHF_ALLOC|SHF_MERGE|SHF_STRINGS,1
	0x43006f22		.L.str.109
.rodata.str1.1	0x43006f3e	0x1c	./quectel/example/build/example_atfwd.o	#SHT_PROGBITS,SHF_ALLOC|SHF_MERGE|SHF_STRINGS,1
	0x43006f3e		.L.str.110
.rodata.str1.1	0x43006f5a	0x1c	./quectel/example/build/example_atfwd.o	#SHT_PROGBITS,SHF_ALLOC|SHF_MERGE|SHF_STRINGS,1
	0x43006f5a		.L.str.111
.rodata.str1.1	0x43006f76	0x1c	./quectel/example/build/example_atfwd.o	#SHT_PROGBITS,SHF_ALLOC|SHF_MERGE|SHF_STRINGS,1
	0x43006f76		.L.str.112
.rodata.str1.1	0x43006f92	0x1c	./quectel/example/build/example_atfwd.o	#SHT_PROGBITS,SHF_ALLOC|SHF_MERGE|SHF_STRINGS,1
	0x43006f92		.L.str.113
.rodata.str1.1	0x43006fae	0x1c	./quectel/example/build/example_atfwd.o	#SHT_PROGBITS,SHF_ALLOC|SHF_MERGE|SHF_STRINGS,1
	0x43006fae		.L.str.114
.rodata.str1.1	0x43006fca	0x2c	./quectel/example/build/example_atfwd.o	#SHT_PROGBITS,SHF_ALLOC|SHF_MERGE|SHF_STRINGS,1
	0x43006fca		.L.str.115
.rodata.str1.1	0x43006ff6	0x1d	./quectel/example/build/example_atfwd.o	#SHT_PROGBITS,SHF_ALLOC|SHF_MERGE|SHF_STRINGS,1
	0x43006ff6		.L.str.116
.rodata.str1.1	0x43007013	0x1d	./quectel/example/build/example_atfwd.o	#SHT_PROGBITS,SHF_ALLOC|SHF_MERGE|SHF_STRINGS,1
	0x43007013		.L.str.117
.rodata.str1.1	0x43007030	0x22	./quectel/example/build/example_atfwd.o	#SHT_PROGBITS,SHF_ALLOC|SHF_MERGE|SHF_STRINGS,1
	0x43007030		.L.str.118
.rodata.str1.1	0x43007052	0x25	./quectel/example/build/example_atfwd.o	#SHT_PROGBITS,SHF_ALLOC|SHF_MERGE|SHF_STRINGS,1
	0x43007052		.L.str.119
.rodata.str1.1	0x43007077	0x26	./quectel/example/build/example_atfwd.o	#SHT_PROGBITS,SHF_ALLOC|SHF_MERGE|SHF_STRINGS,1
	0x43007077		.L.str.120
.rodata.str1.1	0x4300709d	0x28	./quectel/example/build/example_atfwd.o	#SHT_PROGBITS,SHF_ALLOC|SHF_MERGE|SHF_STRINGS,1
	0x4300709d		.L.str.121
.rodata.str1.1	0x430070c5	0x21	./quectel/example/build/example_atfwd.o	#SHT_PROGBITS,SHF_ALLOC|SHF_MERGE|SHF_STRINGS,1
	0x430070c5		.L.str.122
.rodata.str1.1	0x430070e6	0x34	./quectel/example/build/example_atfwd.o	#SHT_PROGBITS,SHF_ALLOC|SHF_MERGE|SHF_STRINGS,1
	0x430070e6		.L.str.123
.rodata.str1.1	0x4300711a	0x22	./quectel/example/build/example_atfwd.o	#SHT_PROGBITS,SHF_ALLOC|SHF_MERGE|SHF_STRINGS,1
	0x4300711a		.L.str.124
.rodata.str1.1	0x4300713c	0x25	./quectel/example/build/example_atfwd.o	#SHT_PROGBITS,SHF_ALLOC|SHF_MERGE|SHF_STRINGS,1
	0x4300713c		.L.str.125
.rodata.str1.1	0x43007161	0x1d	./quectel/example/build/example_atfwd.o	#SHT_PROGBITS,SHF_ALLOC|SHF_MERGE|SHF_STRINGS,1
	0x43007161		.L.str.126
.rodata.str1.1	0x4300717e	0x2f	./quectel/example/build/example_atfwd.o	#SHT_PROGBITS,SHF_ALLOC|SHF_MERGE|SHF_STRINGS,1
	0x4300717e		.L.str.127
.rodata.str1.1	0x430071ad	0x1e	./quectel/example/build/example_atfwd.o	#SHT_PROGBITS,SHF_ALLOC|SHF_MERGE|SHF_STRINGS,1
	0x430071ad		.L.str.128
.rodata.str1.1	0x430071cb	0x20	./quectel/example/build/example_atfwd.o	#SHT_PROGBITS,SHF_ALLOC|SHF_MERGE|SHF_STRINGS,1
	0x430071cb		.L.str.129
.rodata.str1.1	0x430071eb	0x1f	./quectel/example/build/example_atfwd.o	#SHT_PROGBITS,SHF_ALLOC|SHF_MERGE|SHF_STRINGS,1
	0x430071eb		.L.str.130
.rodata.str1.1	0x4300720a	0x1e	./quectel/example/build/example_atfwd.o	#SHT_PROGBITS,SHF_ALLOC|SHF_MERGE|SHF_STRINGS,1
	0x4300720a		.L.str.131
.rodata.str1.1	0x43007228	0x1f	./quectel/example/build/example_atfwd.o	#SHT_PROGBITS,SHF_ALLOC|SHF_MERGE|SHF_STRINGS,1
	0x43007228		.L.str.132
.rodata.str1.1	0x43007247	0x22	./quectel/example/build/example_atfwd.o	#SHT_PROGBITS,SHF_ALLOC|SHF_MERGE|SHF_STRINGS,1
	0x43007247		.L.str.133
.rodata.str1.1	0x43007269	0x21	./quectel/example/build/example_atfwd.o	#SHT_PROGBITS,SHF_ALLOC|SHF_MERGE|SHF_STRINGS,1
	0x43007269		.L.str.134
.rodata.str1.1	0x4300728a	0x23	./quectel/example/build/example_atfwd.o	#SHT_PROGBITS,SHF_ALLOC|SHF_MERGE|SHF_STRINGS,1
	0x4300728a		.L.str.135
.rodata.str1.1	0x430072ad	0x1e	./quectel/example/build/example_atfwd.o	#SHT_PROGBITS,SHF_ALLOC|SHF_MERGE|SHF_STRINGS,1
	0x430072ad		.L.str.136
.rodata.str1.1	0x430072cb	0x1c	./quectel/example/build/example_atfwd.o	#SHT_PROGBITS,SHF_ALLOC|SHF_MERGE|SHF_STRINGS,1
	0x430072cb		.L.str.137
.rodata.str1.1	0x430072e7	0x20	./quectel/example/build/example_atfwd.o	#SHT_PROGBITS,SHF_ALLOC|SHF_MERGE|SHF_STRINGS,1
	0x430072e7		.L.str.138
.rodata.str1.1	0x43007307	0x16	./quectel/example/build/example_atfwd.o	#SHT_PROGBITS,SHF_ALLOC|SHF_MERGE|SHF_STRINGS,1
	0x43007307		.L.str.139
.rodata.str1.1	0x4300731d	0x1f	./quectel/example/build/example_atfwd.o	#SHT_PROGBITS,SHF_ALLOC|SHF_MERGE|SHF_STRINGS,1
	0x4300731d		.L.str.140
.rodata.str1.1	0x4300733c	0x21	./quectel/example/build/example_atfwd.o	#SHT_PROGBITS,SHF_ALLOC|SHF_MERGE|SHF_STRINGS,1
	0x4300733c		.L.str.141
.rodata.str1.1	0x4300735d	0x22	./quectel/example/build/example_atfwd.o	#SHT_PROGBITS,SHF_ALLOC|SHF_MERGE|SHF_STRINGS,1
	0x4300735d		.L.str.142
.rodata.str1.1	0x4300737f	0x21	./quectel/example/build/example_atfwd.o	#SHT_PROGBITS,SHF_ALLOC|SHF_MERGE|SHF_STRINGS,1
	0x4300737f		.L.str.143
.rodata.str1.1	0x430073a0	0x1d	./quectel/example/build/example_atfwd.o	#SHT_PROGBITS,SHF_ALLOC|SHF_MERGE|SHF_STRINGS,1
	0x430073a0		.L.str.144
.rodata.str1.1	0x430073bd	0x8	./quectel/example/build/example_atfwd.o	#SHT_PROGBITS,SHF_ALLOC|SHF_MERGE|SHF_STRINGS,1
	0x430073bd		.L.str.145
.rodata.str1.1	0x430073c5	0x19	./quectel/example/build/example_atfwd.o	#SHT_PROGBITS,SHF_ALLOC|SHF_MERGE|SHF_STRINGS,1
	0x430073c5		.L.str.146
.rodata.str1.1	0x430073de	0x24	./quectel/example/build/example_atfwd.o	#SHT_PROGBITS,SHF_ALLOC|SHF_MERGE|SHF_STRINGS,1
	0x430073de		.L.str.147
.rodata.str1.1	0x43007402	0x1f	./quectel/example/build/example_atfwd.o	#SHT_PROGBITS,SHF_ALLOC|SHF_MERGE|SHF_STRINGS,1
	0x43007402		.L.str.148
.rodata.str1.1	0x43007421	0xe	./quectel/example/build/example_atfwd.o	#SHT_PROGBITS,SHF_ALLOC|SHF_MERGE|SHF_STRINGS,1
	0x43007421		.L.str.149
.rodata.str1.1	0x4300742f	0xf	./quectel/example/build/example_atfwd.o	#SHT_PROGBITS,SHF_ALLOC|SHF_MERGE|SHF_STRINGS,1
	0x4300742f		.L.str.150
.rodata.str1.1	0x4300743e	0x17	./quectel/example/build/example_atfwd.o	#SHT_PROGBITS,SHF_ALLOC|SHF_MERGE|SHF_STRINGS,1
	0x4300743e		.L.str.151
.rodata.str1.1	0x43007455	0x1d	./quectel/example/build/example_atfwd.o	#SHT_PROGBITS,SHF_ALLOC|SHF_MERGE|SHF_STRINGS,1
	0x43007455		.L.str.152
PADDING_ALIGNMENT	0x43007472	0x2	0x0
.rodata	0x43007474	0x70	./quectel/example/build/example_atfwd.o	#SHT_PROGBITS,SHF_ALLOC,4
	0x43007474		uart2_init.xx_msg_const
	0x43007484		uart2_init.xx_msg_const.46
	0x43007494		uart3_init.xx_msg_const
	0x430074a4		uart3_init.xx_msg_const.47
	0x430074b4		quectel_task_entry.xx_msg_const
	0x430074c4		quectel_task_entry.xx_msg_const.75
	0x430074d4		quectel_task_entry.xx_msg_const.82
.rodata.str1.1	0x430074e4	0x22	./quectel/example/build/quectel_uart_apis.o	#SHT_PROGBITS,SHF_ALLOC|SHF_MERGE|SHF_STRINGS,1
	0x430074e4		.L.str
.rodata.str1.1	0x43007506	0x2b	./quectel/example/build/quectel_uart_apis.o	#SHT_PROGBITS,SHF_ALLOC|SHF_MERGE|SHF_STRINGS,1
	0x43007506		.L.str.2
.rodata.str1.1	0x43007531	0x26	./quectel/example/build/quectel_uart_apis.o	#SHT_PROGBITS,SHF_ALLOC|SHF_MERGE|SHF_STRINGS,1
	0x43007531		.L.str.3
.rodata.str1.1	0x43007557	0x26	./quectel/example/build/quectel_uart_apis.o	#SHT_PROGBITS,SHF_ALLOC|SHF_MERGE|SHF_STRINGS,1
	0x43007557		.L.str.5
.rodata.str1.1	0x4300757d	0x25	./quectel/example/build/quectel_uart_apis.o	#SHT_PROGBITS,SHF_ALLOC|SHF_MERGE|SHF_STRINGS,1
	0x4300757d		.L.str.6
.rodata.str1.1	0x430075a2	0x1d	./quectel/example/build/quectel_uart_apis.o	#SHT_PROGBITS,SHF_ALLOC|SHF_MERGE|SHF_STRINGS,1
	0x430075a2		.L.str.8
.rodata.str1.1	0x430075bf	0x1a	./quectel/example/build/quectel_uart_apis.o	#SHT_PROGBITS,SHF_ALLOC|SHF_MERGE|SHF_STRINGS,1
	0x430075bf		.L.str.9
PADDING_ALIGNMENT	0x430075d9	0x3	0x0
.rodata	0x430075dc	0x60	./quectel/example/build/quectel_uart_apis.o	#SHT_PROGBITS,SHF_ALLOC,4
	0x430075dc		uart_init.xx_msg_const
	0x430075ec		uart_init.xx_msg_const.4
	0x430075fc		uart_print.xx_msg_const
	0x4300760c		uart_recv.xx_msg_const
	0x4300761c		uart_rx_cb.xx_msg_const
	0x4300762c		uart_tx_cb.xx_msg_const
.rodata	0x4300763c	0x10	./quectel/example/build/quectel_utils.o	#SHT_PROGBITS,SHF_ALLOC,4
	0x4300763c		quectel_format_log_msg.xx_msg_const
.rodata.str1.1	0x4300764c	0x2d	./quectel/example/build/quectel_utils.o	#SHT_PROGBITS,SHF_ALLOC|SHF_MERGE|SHF_STRINGS,1
	0x4300764c		.L.str
.rodata.str1.1	0x43007679	0x27	./quectel/example/build/quectel_utils.o	#SHT_PROGBITS,SHF_ALLOC|SHF_MERGE|SHF_STRINGS,1
	0x43007679		.L.str.1
.rodata.str1.1	0x430076a0	0x12	./libs/timer_dam_lib.lib(qapi_timer_user.o)	#SHT_PROGBITS,SHF_ALLOC|SHF_MERGE|SHF_STRINGS,1
	0x430076a0		.L.str
PADDING_ALIGNMENT	0x430076b2	0x2	0x0
.rodata.cst16	0x430076b4	0x10	C:\compile_tools\LLVM\4.0.3\armv7m-none-eabi\libc\lib/libc.a(setlocale.o)	#SHT_PROGBITS,SHF_ALLOC|SHF_MERGE,4
	0x430076b4		$d
.rodata.str1.1	0x430076c4	0x7	C:\compile_tools\LLVM\4.0.3\armv7m-none-eabi\libc\lib/libc.a(vfprintf.o)	#SHT_PROGBITS,SHF_ALLOC|SHF_MERGE|SHF_STRINGS,1
.rodata.str1.1	0x430076cb	0xa	C:\compile_tools\LLVM\4.0.3\armv7m-none-eabi\libc\lib/libc.a(vfprintf.o)	#SHT_PROGBITS,SHF_ALLOC|SHF_MERGE|SHF_STRINGS,1
.rodata.states	0x430076d5	0x1d0	C:\compile_tools\LLVM\4.0.3\armv7m-none-eabi\libc\lib/libc.a(vfprintf.o)	#SHT_PROGBITS,SHF_ALLOC,1
	0x430076d5		states
.rodata.cst16	0x430078a5	0x10	C:\compile_tools\LLVM\4.0.3\armv7m-none-eabi\libc\lib/libc.a(vfprintf.o)	#SHT_PROGBITS,SHF_ALLOC|SHF_MERGE,1
	0x430078a5		xdigits
PADDING_ALIGNMENT	0x430078b5	0x3	0x0
.rodata.str1.4	0x430078b8	0x14	C:\compile_tools\LLVM\4.0.3\armv7m-none-eabi\libc\lib/libc.a(vfprintf.o)	#SHT_PROGBITS,SHF_ALLOC|SHF_MERGE|SHF_STRINGS,4
	0x430078b8		$d
PADDING_ALIGNMENT	0x430078cc	0x4	0x0
.rodata..Lvsnprintf_full.f	0x430078d0	0x90	C:\compile_tools\LLVM\4.0.3\armv7m-none-eabi\libc\lib/libc.a(vsnprintf.o)	#SHT_PROGBITS,SHF_ALLOC,8
	0x430078d0		$d
.rodata.str1.1	0x43007960	0x58	C:\compile_tools\LLVM\4.0.3\armv7m-none-eabi\libc\lib/libc.a(strerror.o)	#SHT_PROGBITS,SHF_ALLOC|SHF_MERGE|SHF_STRINGS,1
	0x43007960		errid
.rodata.errmsg	0x430079b8	0x70c	C:\compile_tools\LLVM\4.0.3\armv7m-none-eabi\libc\lib/libc.a(strerror.o)	#SHT_PROGBITS,SHF_ALLOC,1
	0x430079b8		errmsg
.rodata.str1.1	0x430080c4	0x7	C:\compile_tools\LLVM\4.0.3\armv7m-none-eabi\libc\lib/libc.a(locale_map.o)	#SHT_PROGBITS,SHF_ALLOC|SHF_MERGE|SHF_STRINGS,1
.rodata.str1.1	0x430080cb	0x5	C:\compile_tools\LLVM\4.0.3\armv7m-none-eabi\libc\lib/libc.a(locale_map.o)	#SHT_PROGBITS,SHF_ALLOC|SHF_MERGE|SHF_STRINGS,1
.rodata.str1.1	0x430080d0	0x8	C:\compile_tools\LLVM\4.0.3\armv7m-none-eabi\libc\lib/libc.a(locale_map.o)	#SHT_PROGBITS,SHF_ALLOC|SHF_MERGE|SHF_STRINGS,1
.rodata.str1.1	0x430080d8	0x6	C:\compile_tools\LLVM\4.0.3\armv7m-none-eabi\libc\lib/libc.a(locale_map.o)	#SHT_PROGBITS,SHF_ALLOC|SHF_MERGE|SHF_STRINGS,1
.rodata.str1.1	0x430080de	0xd	C:\compile_tools\LLVM\4.0.3\armv7m-none-eabi\libc\lib/libc.a(locale_map.o)	#SHT_PROGBITS,SHF_ALLOC|SHF_MERGE|SHF_STRINGS,1
.rodata.envvars	0x430080eb	0x48	C:\compile_tools\LLVM\4.0.3\armv7m-none-eabi\libc\lib/libc.a(locale_map.o)	#SHT_PROGBITS,SHF_ALLOC,1
	0x430080eb		envvars
.rodata.cst32	0x43008133	0x20	C:\compile_tools\LLVM\4.0.3\armv7m-none-eabi\libc\lib/libc.a(malloc.o)	#SHT_PROGBITS,SHF_ALLOC|SHF_MERGE,1
	0x43008133		a_ctz_64.debruijn32
PADDING_ALIGNMENT	0x43008153	0x1	0x0
.rodata.empty_mo	0x43008154	0x14	C:\compile_tools\LLVM\4.0.3\armv7m-none-eabi\libc\lib/libc.a(c_locale.o)	#SHT_PROGBITS,SHF_ALLOC,4
	0x43008154		empty_mo
	0x43008154		$d
.rodata.__c_dot_utf8	0x43008168	0x1c	C:\compile_tools\LLVM\4.0.3\armv7m-none-eabi\libc\lib/libc.a(c_locale.o)	#SHT_PROGBITS,SHF_ALLOC,4
	0x43008168		$d
	0x43008168		__c_dot_utf8
	Image$$ER_RO$$Limit(0x43008190) = .( 0x43008190 );
Image$$ER_RO$$Length(0x8190) = Image$$ER_RO$$Limit( 0x43008190 ) - Image$$ER_RO$$Base( 0x43000000 );

ER_RW	0x43008190	0x5ac # Offset: 0x81f0, LMA: 0x43008190
	Image$$ER_RW$$Base(0x43008190) = .( 0x43008190 );
KEEP (*(.data .data.* ))
.data	0x43008190	0xe4	./quectel/example/build/example_atfwd.o	#SHT_PROGBITS,SHF_ALLOC|SHF_WRITE,16
	0x43008190		da
	0x43008192		ver_cmd
	0x43008198		adc_cmd
	0x4300819e		pin_cmd
	0x430081a4		hardRestCmd
	0x430081aa		int_cmd
	0x430081b0		pwrCtrlCmd
	0x430081b6		queryGpioCmd
	0x430081bc		rtc_cmd
	0x430081c2		qId_cmd
	0x430081c8		rst_cnt
	0x430081ce		tst_cmd
	0x430081d4		wdDefaultTimerCmd
	0x430081db		setAdcLvlCmd
	0x430081e2		setGpioCmd
	0x430081ea		readGpioCmd
	0x430081f2		wd_cmd
	0x430081fa		sleepTimerCmd
	0x43008202		ble_start
	0x43008210		gpioCfgcmd
	0x43008219		readE2romCmd
	0x43008224		newTimeCmd
	0x4300822f		writeE2romCmd
	0x4300823c		uart2_conf
	0x43008258		uart3_conf
PADDING_ALIGNMENT	0x43008274	0xc	0x0
.data..L_MergedGlobals	0x43008280	0x70	C:\compile_tools\LLVM\4.0.3\armv7m-none-eabi\libc\lib/libc.a(setlocale.o)	#SHT_PROGBITS,SHF_ALLOC|SHF_WRITE,16
	0x43008280		$d
	0x43008280		setlocale.lock
	0x43008288		buf
.data.__progname	0x430082f0	0x4	C:\compile_tools\LLVM\4.0.3\armv7m-none-eabi\libc\lib/libc.a(libc.o)	#SHT_PROGBITS,SHF_ALLOC|SHF_WRITE,4
	0x430082f0		$d
	0x430082f0		__progname
	0x430082f0		program_invocation_short_name
.data.__progname_full	0x430082f4	0x4	C:\compile_tools\LLVM\4.0.3\armv7m-none-eabi\libc\lib/libc.a(libc.o)	#SHT_PROGBITS,SHF_ALLOC|SHF_WRITE,4
	0x430082f4		$d
	0x430082f4		__progname_full
	0x430082f4		program_invocation_name
.data..L_MergedGlobals	0x430082f8	0xc	C:\compile_tools\LLVM\4.0.3\armv7m-none-eabi\libc\lib/libc.a(locale_map.o)	#SHT_PROGBITS,SHF_ALLOC|SHF_WRITE,4
	0x430082f8		$d
	0x430082f8		__get_locale.loc_head
	0x430082fc		__get_locale.lock
PADDING_ALIGNMENT	0x43008304	0x4	0x0
.data.mal	0x43008308	0x410	C:\compile_tools\LLVM\4.0.3\armv7m-none-eabi\libc\lib/libc.a(malloc.o)	#SHT_PROGBITS,SHF_ALLOC|SHF_WRITE,8
	0x43008308		mal
	0x43008308		$d
.data..L_MergedGlobals	0x43008718	0xc	C:\compile_tools\LLVM\4.0.3\armv7m-none-eabi\libc\lib/libc.a(malloc.o)	#SHT_PROGBITS,SHF_ALLOC|SHF_WRITE,4
	0x43008718		$d
	0x43008718		expand_heap.end
	0x4300871c		expand_heap.heap_lock
.data.__expand_heap.brk	0x43008724	0x4	C:\compile_tools\LLVM\4.0.3\armv7m-none-eabi\libc\lib/libc.a(expand_heap.o)	#SHT_PROGBITS,SHF_ALLOC|SHF_WRITE,4
	0x43008724		__expand_heap.brk
	0x43008724		$d
.data.dummy_file	0x43008728	0x4	C:\compile_tools\LLVM\4.0.3\armv7m-none-eabi\libc\lib/libc.a(__stdio_exit.o)	#SHT_PROGBITS,SHF_ALLOC|SHF_WRITE,4
	0x43008728		dummy_file
	0x43008728		$d
	0x43008728		__stdin_used
	0x43008728		__stdout_used
	0x43008728		__stderr_used
.data.ofl_head	0x4300872c	0x4	C:\compile_tools\LLVM\4.0.3\armv7m-none-eabi\libc\lib/libc.a(ofl.o)	#SHT_PROGBITS,SHF_ALLOC|SHF_WRITE,4
	0x4300872c		ofl_head
	0x4300872c		$d
.data.__environ	0x43008730	0x4	C:\compile_tools\LLVM\4.0.3\armv7m-none-eabi\libc\lib/libc.a(__environ.o)	#SHT_PROGBITS,SHF_ALLOC|SHF_WRITE,4
	0x43008730		$d
	0x43008730		__environ
	0x43008730		___environ
	0x43008730		_environ
	0x43008730		environ
.data.__heap_base	0x43008734	0x4	C:\compile_tools\LLVM\4.0.3\armv7m-none-eabi\libc\lib/libc.a(__brk.o)	#SHT_PROGBITS,SHF_ALLOC|SHF_WRITE,4
	0x43008734		$d
	0x43008734		__heap_base
.data.__heap_limit	0x43008738	0x4	C:\compile_tools\LLVM\4.0.3\armv7m-none-eabi\libc\lib/libc.a(__brk.o)	#SHT_PROGBITS,SHF_ALLOC|SHF_WRITE,4
	0x43008738		$d
	0x43008738		__heap_limit
	Image$$ER_RW$$Limit(0x4300873c) = .( 0x4300873c );
Image$$ER_RW$$Length(0x5ac) = Image$$ER_RW$$Limit( 0x4300873c ) - Image$$ER_RW$$Base( 0x43008190 );

ER_ZI	0x43008740	0x2956c # Offset: 0x879c, LMA: 0x43008740
	Image$$ER_ZI$$Base(0x43008740) = .( 0x43008740 );
*(.bss* .bss.* .common COMMON )
	0x43008740	0x1000	./libs/timer_dam_lib.lib(qapi_timer_user.o)	#SHT_NOBITS,SHF_ALLOC|SHF_WRITE,16
	0x43008740		timer_client_stack
	0x43009740	0x4	./libs/timer_dam_lib.lib(qapi_timer_user.o)	#SHT_NOBITS,SHF_ALLOC|SHF_WRITE,16
	0x43009740		timer_client_module_thread
	0x43009744	0x4	./libs/timer_dam_lib.lib(qapi_timer_user.o)	#SHT_NOBITS,SHF_ALLOC|SHF_WRITE,16
	0x43009744		timer_thread_state
	0x43009748	0x4	./libs/timer_dam_lib.lib(qapi_timer_user.o)	#SHT_NOBITS,SHF_ALLOC|SHF_WRITE,16
	0x43009748		timer_user_handle
	0x4300974c	0x4	./libs/txm_lib.lib(txm_module_thread_shell_entry.o)	#SHT_NOBITS,SHF_ALLOC|SHF_WRITE,16
	0x4300974c		_txm_module_entry_info
	0x43009750	0x4	./libs/txm_lib.lib(txm_module_thread_shell_entry.o)	#SHT_NOBITS,SHF_ALLOC|SHF_WRITE,16
	0x43009750		_txm_module_instance_ptr
	0x43009754	0x4	./libs/txm_lib.lib(txm_module_thread_shell_entry.o)	#SHT_NOBITS,SHF_ALLOC|SHF_WRITE,16
	0x43009754		_txm_module_kernel_call_dispatcher
	0x43009758	0x40	C:\compile_tools\LLVM\4.0.3\armv7m-none-eabi\libc\lib/libc.a(libc.o)	#SHT_NOBITS,SHF_ALLOC|SHF_WRITE,16
	0x43009758		__libc
PADDING_ALIGNMENT	0x43009798	0x8	0x0
.bss	0x430097a0	0x28508	./quectel/example/build/example_atfwd.o	#SHT_NOBITS,SHF_ALLOC|SHF_WRITE,16
	0x430097a0		free_memory_at
	0x4301d7a0		free_memory_uart
	0x430317a0		respBuff
	0x43031ba0		atel_timer_def_attr
	0x43031bb0		g_e2rom_rw.0
	0x43031bb4		g_e2rom_rw.1
	0x43031bb6		g_wd_status.0
	0x43031bc0		send_cmd
	0x43031bc1		g_pin_cfg.0
	0x43031bc2		g_pin_cfg.1
	0x43031bc3		g_ver.0
	0x43031bc4		g_ver.1
	0x43031bc5		g_ver.2
	0x43031bc6		g_ver.3
	0x43031bc8		g_adc.0
	0x43031bca		g_adc.1
	0x43031bcc		g_adc.2
	0x43031bce		g_int_status.0
	0x43031bd0		g_wd_status.1
	0x43031bd2		g_rst_cnt.0
	0x43031bd4		g_rst_cnt.1
	0x43031bd8		tx_queue_handle
	0x43031bdc		byte_pool_uart
	0x43031be0		timer_cnt
	0x43031be4		timeout_cnt
	0x43031be8		atel_timer_handle
	0x43031bec		rx2_buff
	0x43031bf0		tx2_buff
	0x43031bf4		rx3_buff
	0x43031bf8		tx3_buff
	0x43031bfc		byte_pool_at
	0x43031c00		task_comm
	0x43031c04		g_e2rom_rw.2
	0x43031c08		g_rtc_status.0
	0x43031c0c		queue_api.1
	0x43031c10		queue_api.2
	0x43031c18		atel_timer_set_attr
	0x43031c30		queue_api.0
.bss.qapi_timer_user_initialized	0x43031ca8	0x4	./libs/timer_dam_lib.lib(qapi_timer_user.o)	#SHT_NOBITS,SHF_ALLOC|SHF_WRITE,4
	0x43031ca8		qapi_timer_user_initialized
	Image$$ER_ZI$$Limit(0x43031cac) = .( 0x43031cac );
Image$$ER_ZI$$ZI$$Length(0x2956c) = Image$$ER_ZI$$Limit( 0x43031cac ) - Image$$ER_ZI$$Base( 0x43008740 );

.debug	0x0	0x0 # Offset: 0x0

.line	0x0	0x0 # Offset: 0x0

.debug_srcinfo	0x0	0x0 # Offset: 0x0

.debug_sfnames	0x0	0x0 # Offset: 0x0

.debug_aranges	0x0	0x0 # Offset: 0x0

.debug_pubnames	0x879c	0x359 # Offset: 0x879c
*(.debug_pubnames )
.debug_pubnames	0x879c	0x18a	./libs/timer_dam_lib.lib(qapi_timer_user.o)	#SHT_PROGBITS,,1
.debug_pubnames	0x8926	0xa2	./libs/txm_lib.lib(txm_module_thread_shell_entry.o)	#SHT_PROGBITS,,1
.debug_pubnames	0x89c8	0x40	./libs/txm_lib.lib(txm_module_callback_request_thread_entry.o)	#SHT_PROGBITS,,1
.debug_pubnames	0x8a08	0x30	./libs/txm_lib.lib(txm_module_system_call11.o)	#SHT_PROGBITS,,1
.debug_pubnames	0x8a38	0x30	./libs/txm_lib.lib(txm_module_system_call12.o)	#SHT_PROGBITS,,1
.debug_pubnames	0x8a68	0x2f	./libs/txm_lib.lib(txm_module_system_call4.o)	#SHT_PROGBITS,,1
.debug_pubnames	0x8a97	0x2f	./libs/txm_lib.lib(txm_module_system_call5.o)	#SHT_PROGBITS,,1
.debug_pubnames	0x8ac6	0x2f	./libs/txm_lib.lib(txm_module_system_call6.o)	#SHT_PROGBITS,,1

.debug_info	0x8af5	0x2cfe # Offset: 0x8af5
*(.debug_info .gnu.linkonce.wi.* )
.debug_info	0x8af5	0xb01	./libs/timer_dam_lib.lib(qapi_timer_user.o)	#SHT_PROGBITS,,1
.debug_info	0x95f6	0xcd5	./libs/txm_lib.lib(txm_module_thread_shell_entry.o)	#SHT_PROGBITS,,1
.debug_info	0xa2cb	0x1019	./libs/txm_lib.lib(txm_module_callback_request_thread_entry.o)	#SHT_PROGBITS,,1
.debug_info	0xb2e4	0x136	./libs/txm_lib.lib(txm_module_system_call11.o)	#SHT_PROGBITS,,1
.debug_info	0xb41a	0x145	./libs/txm_lib.lib(txm_module_system_call12.o)	#SHT_PROGBITS,,1
.debug_info	0xb55f	0xcd	./libs/txm_lib.lib(txm_module_system_call4.o)	#SHT_PROGBITS,,1
.debug_info	0xb62c	0xdc	./libs/txm_lib.lib(txm_module_system_call5.o)	#SHT_PROGBITS,,1
.debug_info	0xb708	0xeb	./libs/txm_lib.lib(txm_module_system_call6.o)	#SHT_PROGBITS,,1

.debug_abbrev	0xb7f3	0x628 # Offset: 0xb7f3
*(.debug_abbrev )
.debug_abbrev	0xb7f3	0x19a	./libs/timer_dam_lib.lib(qapi_timer_user.o)	#SHT_PROGBITS,,1
.debug_abbrev	0xb98d	0xe2	./libs/txm_lib.lib(txm_module_thread_shell_entry.o)	#SHT_PROGBITS,,1
.debug_abbrev	0xba6f	0xeb	./libs/txm_lib.lib(txm_module_callback_request_thread_entry.o)	#SHT_PROGBITS,,1
.debug_abbrev	0xbb5a	0x8d	./libs/txm_lib.lib(txm_module_system_call11.o)	#SHT_PROGBITS,,1
.debug_abbrev	0xbbe7	0x8d	./libs/txm_lib.lib(txm_module_system_call12.o)	#SHT_PROGBITS,,1
.debug_abbrev	0xbc74	0x8d	./libs/txm_lib.lib(txm_module_system_call4.o)	#SHT_PROGBITS,,1
.debug_abbrev	0xbd01	0x8d	./libs/txm_lib.lib(txm_module_system_call5.o)	#SHT_PROGBITS,,1
.debug_abbrev	0xbd8e	0x8d	./libs/txm_lib.lib(txm_module_system_call6.o)	#SHT_PROGBITS,,1

.debug_line	0xbe1b	0x1042 # Offset: 0xbe1b
*(.debug_line )
.debug_line	0xbe1b	0x4d4	./libs/timer_dam_lib.lib(qapi_timer_user.o)	#SHT_PROGBITS,,1
.debug_line	0xc2ef	0x1c2	./libs/txm_lib.lib(txm_module_thread_shell_entry.o)	#SHT_PROGBITS,,1
.debug_line	0xc4b1	0x27c	./libs/txm_lib.lib(txm_module_callback_request_thread_entry.o)	#SHT_PROGBITS,,1
.debug_line	0xc72d	0x174	./libs/txm_lib.lib(txm_module_system_call11.o)	#SHT_PROGBITS,,1
.debug_line	0xc8a1	0x175	./libs/txm_lib.lib(txm_module_system_call12.o)	#SHT_PROGBITS,,1
.debug_line	0xca16	0x16c	./libs/txm_lib.lib(txm_module_system_call4.o)	#SHT_PROGBITS,,1
.debug_line	0xcb82	0x16d	./libs/txm_lib.lib(txm_module_system_call5.o)	#SHT_PROGBITS,,1
.debug_line	0xccef	0x16e	./libs/txm_lib.lib(txm_module_system_call6.o)	#SHT_PROGBITS,,1

.debug_frame	0xce5d	0x26c # Offset: 0xce5d
*(.debug_frame )
.debug_frame	0xce5d	0x134	./libs/timer_dam_lib.lib(qapi_timer_user.o)	#SHT_PROGBITS,,4
.debug_frame	0xcf91	0x2c	./libs/txm_lib.lib(txm_module_thread_shell_entry.o)	#SHT_PROGBITS,,4
.debug_frame	0xcfbd	0x3c	./libs/txm_lib.lib(txm_module_callback_request_thread_entry.o)	#SHT_PROGBITS,,4
.debug_frame	0xcff9	0x2c	./libs/txm_lib.lib(txm_module_system_call11.o)	#SHT_PROGBITS,,4
.debug_frame	0xd025	0x2c	./libs/txm_lib.lib(txm_module_system_call12.o)	#SHT_PROGBITS,,4
.debug_frame	0xd051	0x28	./libs/txm_lib.lib(txm_module_system_call4.o)	#SHT_PROGBITS,,4
.debug_frame	0xd079	0x28	./libs/txm_lib.lib(txm_module_system_call5.o)	#SHT_PROGBITS,,4
.debug_frame	0xd0a1	0x28	./libs/txm_lib.lib(txm_module_system_call6.o)	#SHT_PROGBITS,,4

.debug_str	0xd0c9	0x2c69 # Offset: 0xd0c9
*(.debug_str )
.debug_str	0xd0c9	0x3c	./libs/timer_dam_lib.lib(qapi_timer_user.o)	#SHT_PROGBITS,SHF_MERGE|SHF_STRINGS,1
	0x0		
.debug_str	0xd105	0x8b	./libs/timer_dam_lib.lib(qapi_timer_user.o)	#SHT_PROGBITS,SHF_MERGE|SHF_STRINGS,1
	0x3c		
.debug_str	0xd190	0x66	./libs/timer_dam_lib.lib(qapi_timer_user.o)	#SHT_PROGBITS,SHF_MERGE|SHF_STRINGS,1
	0xc7		
.debug_str	0xd1f6	0x1c	./libs/timer_dam_lib.lib(qapi_timer_user.o)	#SHT_PROGBITS,SHF_MERGE|SHF_STRINGS,1
	0x12d		
.debug_str	0xd212	0xd	./libs/timer_dam_lib.lib(qapi_timer_user.o)	#SHT_PROGBITS,SHF_MERGE|SHF_STRINGS,1
	0x149		
.debug_str	0xd21f	0x9	./libs/timer_dam_lib.lib(qapi_timer_user.o)	#SHT_PROGBITS,SHF_MERGE|SHF_STRINGS,1
	0x156		
.debug_str	0xd228	0xe	./libs/timer_dam_lib.lib(qapi_timer_user.o)	#SHT_PROGBITS,SHF_MERGE|SHF_STRINGS,1
	0x15f		
.debug_str	0xd236	0x13	./libs/timer_dam_lib.lib(qapi_timer_user.o)	#SHT_PROGBITS,SHF_MERGE|SHF_STRINGS,1
	0x16d		
.debug_str	0xd249	0x13	./libs/timer_dam_lib.lib(qapi_timer_user.o)	#SHT_PROGBITS,SHF_MERGE|SHF_STRINGS,1
	0x180		
.debug_str	0xd25c	0x14	./libs/timer_dam_lib.lib(qapi_timer_user.o)	#SHT_PROGBITS,SHF_MERGE|SHF_STRINGS,1
	0x193		
.debug_str	0xd270	0x15	./libs/timer_dam_lib.lib(qapi_timer_user.o)	#SHT_PROGBITS,SHF_MERGE|SHF_STRINGS,1
	0x1a7		
.debug_str	0xd285	0x18	./libs/timer_dam_lib.lib(qapi_timer_user.o)	#SHT_PROGBITS,SHF_MERGE|SHF_STRINGS,1
	0x1bc		
.debug_str	0xd29d	0x15	./libs/timer_dam_lib.lib(qapi_timer_user.o)	#SHT_PROGBITS,SHF_MERGE|SHF_STRINGS,1
	0x1d4		
.debug_str	0xd2b2	0x12	./libs/timer_dam_lib.lib(qapi_timer_user.o)	#SHT_PROGBITS,SHF_MERGE|SHF_STRINGS,1
	0x1e9		
.debug_str	0xd2c4	0x1a	./libs/timer_dam_lib.lib(qapi_timer_user.o)	#SHT_PROGBITS,SHF_MERGE|SHF_STRINGS,1
	0x1fb		
.debug_str	0xd2de	0x1f	./libs/timer_dam_lib.lib(qapi_timer_user.o)	#SHT_PROGBITS,SHF_MERGE|SHF_STRINGS,1
	0x215		
.debug_str	0xd2fd	0x1b	./libs/timer_dam_lib.lib(qapi_timer_user.o)	#SHT_PROGBITS,SHF_MERGE|SHF_STRINGS,1
	0x234		
.debug_str	0xd318	0xd	./libs/timer_dam_lib.lib(qapi_timer_user.o)	#SHT_PROGBITS,SHF_MERGE|SHF_STRINGS,1
	0x24f		
.debug_str	0xd325	0x12	./libs/timer_dam_lib.lib(qapi_timer_user.o)	#SHT_PROGBITS,SHF_MERGE|SHF_STRINGS,1
	0x25c		
.debug_str	0xd337	0x6	./libs/timer_dam_lib.lib(qapi_timer_user.o)	#SHT_PROGBITS,SHF_MERGE|SHF_STRINGS,1
	0x26e		
.debug_str	0xd33d	0x14	./libs/timer_dam_lib.lib(qapi_timer_user.o)	#SHT_PROGBITS,SHF_MERGE|SHF_STRINGS,1
	0x274		
.debug_str	0xd351	0x14	./libs/timer_dam_lib.lib(qapi_timer_user.o)	#SHT_PROGBITS,SHF_MERGE|SHF_STRINGS,1
	0x288		
.debug_str	0xd365	0x16	./libs/timer_dam_lib.lib(qapi_timer_user.o)	#SHT_PROGBITS,SHF_MERGE|SHF_STRINGS,1
	0x29c		
.debug_str	0xd37b	0x14	./libs/timer_dam_lib.lib(qapi_timer_user.o)	#SHT_PROGBITS,SHF_MERGE|SHF_STRINGS,1
	0x2b2		
.debug_str	0xd38f	0x15	./libs/timer_dam_lib.lib(qapi_timer_user.o)	#SHT_PROGBITS,SHF_MERGE|SHF_STRINGS,1
	0x2c6		
.debug_str	0xd3a4	0x15	./libs/timer_dam_lib.lib(qapi_timer_user.o)	#SHT_PROGBITS,SHF_MERGE|SHF_STRINGS,1
	0x2db		
.debug_str	0xd3b9	0x19	./libs/timer_dam_lib.lib(qapi_timer_user.o)	#SHT_PROGBITS,SHF_MERGE|SHF_STRINGS,1
	0x2f0		
.debug_str	0xd3d2	0x15	./libs/timer_dam_lib.lib(qapi_timer_user.o)	#SHT_PROGBITS,SHF_MERGE|SHF_STRINGS,1
	0x309		
.debug_str	0xd3e7	0x19	./libs/timer_dam_lib.lib(qapi_timer_user.o)	#SHT_PROGBITS,SHF_MERGE|SHF_STRINGS,1
	0x31e		
.debug_str	0xd400	0xf	./libs/timer_dam_lib.lib(qapi_timer_user.o)	#SHT_PROGBITS,SHF_MERGE|SHF_STRINGS,1
	0x337		
.debug_str	0xd40f	0x5	./libs/timer_dam_lib.lib(qapi_timer_user.o)	#SHT_PROGBITS,SHF_MERGE|SHF_STRINGS,1
	0x346		
.debug_str	0xd414	0x5	./libs/timer_dam_lib.lib(qapi_timer_user.o)	#SHT_PROGBITS,SHF_MERGE|SHF_STRINGS,1
	0x34b		
.debug_str	0xd419	0x13	./libs/timer_dam_lib.lib(qapi_timer_user.o)	#SHT_PROGBITS,SHF_MERGE|SHF_STRINGS,1
	0x350		
.debug_str	0xd42c	0x5	./libs/timer_dam_lib.lib(qapi_timer_user.o)	#SHT_PROGBITS,SHF_MERGE|SHF_STRINGS,1
	0x363		
.debug_str	0xd431	0x10	./libs/timer_dam_lib.lib(qapi_timer_user.o)	#SHT_PROGBITS,SHF_MERGE|SHF_STRINGS,1
	0x368		
.debug_str	0xd441	0x1a	./libs/timer_dam_lib.lib(qapi_timer_user.o)	#SHT_PROGBITS,SHF_MERGE|SHF_STRINGS,1
	0x378		
.debug_str	0xd45b	0x15	./libs/timer_dam_lib.lib(qapi_timer_user.o)	#SHT_PROGBITS,SHF_MERGE|SHF_STRINGS,1
	0x392		
.debug_str	0xd470	0x1c	./libs/timer_dam_lib.lib(qapi_timer_user.o)	#SHT_PROGBITS,SHF_MERGE|SHF_STRINGS,1
	0x3a7		
.debug_str	0xd48c	0x18	./libs/timer_dam_lib.lib(qapi_timer_user.o)	#SHT_PROGBITS,SHF_MERGE|SHF_STRINGS,1
	0x3c3		
.debug_str	0xd4a4	0x10	./libs/timer_dam_lib.lib(qapi_timer_user.o)	#SHT_PROGBITS,SHF_MERGE|SHF_STRINGS,1
	0x3db		
.debug_str	0xd4b4	0x1a	./libs/timer_dam_lib.lib(qapi_timer_user.o)	#SHT_PROGBITS,SHF_MERGE|SHF_STRINGS,1
	0x3eb		
.debug_str	0xd4ce	0x10	./libs/timer_dam_lib.lib(qapi_timer_user.o)	#SHT_PROGBITS,SHF_MERGE|SHF_STRINGS,1
	0x405		
.debug_str	0xd4de	0x22	./libs/timer_dam_lib.lib(qapi_timer_user.o)	#SHT_PROGBITS,SHF_MERGE|SHF_STRINGS,1
	0x415		
.debug_str	0xd500	0x26	./libs/timer_dam_lib.lib(qapi_timer_user.o)	#SHT_PROGBITS,SHF_MERGE|SHF_STRINGS,1
	0x437		
.debug_str	0xd526	0x23	./libs/timer_dam_lib.lib(qapi_timer_user.o)	#SHT_PROGBITS,SHF_MERGE|SHF_STRINGS,1
	0x45d		
.debug_str	0xd549	0x20	./libs/timer_dam_lib.lib(qapi_timer_user.o)	#SHT_PROGBITS,SHF_MERGE|SHF_STRINGS,1
	0x480		
.debug_str	0xd569	0x1e	./libs/timer_dam_lib.lib(qapi_timer_user.o)	#SHT_PROGBITS,SHF_MERGE|SHF_STRINGS,1
	0x4a0		
.debug_str	0xd587	0x22	./libs/timer_dam_lib.lib(qapi_timer_user.o)	#SHT_PROGBITS,SHF_MERGE|SHF_STRINGS,1
	0x4be		
.debug_str	0xd5a9	0x1c	./libs/timer_dam_lib.lib(qapi_timer_user.o)	#SHT_PROGBITS,SHF_MERGE|SHF_STRINGS,1
	0x4e0		
.debug_str	0xd5c5	0x19	./libs/timer_dam_lib.lib(qapi_timer_user.o)	#SHT_PROGBITS,SHF_MERGE|SHF_STRINGS,1
	0x4fc		
.debug_str	0xd5de	0x12	./libs/timer_dam_lib.lib(qapi_timer_user.o)	#SHT_PROGBITS,SHF_MERGE|SHF_STRINGS,1
	0x515		
.debug_str	0xd5f0	0x1a	./libs/timer_dam_lib.lib(qapi_timer_user.o)	#SHT_PROGBITS,SHF_MERGE|SHF_STRINGS,1
	0x527		
.debug_str	0xd60a	0x20	./libs/timer_dam_lib.lib(qapi_timer_user.o)	#SHT_PROGBITS,SHF_MERGE|SHF_STRINGS,1
	0x541		
.debug_str	0xd62a	0x19	./libs/timer_dam_lib.lib(qapi_timer_user.o)	#SHT_PROGBITS,SHF_MERGE|SHF_STRINGS,1
	0x561		
.debug_str	0xd643	0x1d	./libs/timer_dam_lib.lib(qapi_timer_user.o)	#SHT_PROGBITS,SHF_MERGE|SHF_STRINGS,1
	0x57a		
.debug_str	0xd660	0x17	./libs/timer_dam_lib.lib(qapi_timer_user.o)	#SHT_PROGBITS,SHF_MERGE|SHF_STRINGS,1
	0x597		
.debug_str	0xd677	0x22	./libs/timer_dam_lib.lib(qapi_timer_user.o)	#SHT_PROGBITS,SHF_MERGE|SHF_STRINGS,1
	0x5ae		
.debug_str	0xd699	0x19	./libs/timer_dam_lib.lib(qapi_timer_user.o)	#SHT_PROGBITS,SHF_MERGE|SHF_STRINGS,1
	0x5d0		
.debug_str	0xd6b2	0x19	./libs/timer_dam_lib.lib(qapi_timer_user.o)	#SHT_PROGBITS,SHF_MERGE|SHF_STRINGS,1
	0x5e9		
.debug_str	0xd6cb	0x17	./libs/timer_dam_lib.lib(qapi_timer_user.o)	#SHT_PROGBITS,SHF_MERGE|SHF_STRINGS,1
	0x602		
.debug_str	0xd6e2	0x1b	./libs/timer_dam_lib.lib(qapi_timer_user.o)	#SHT_PROGBITS,SHF_MERGE|SHF_STRINGS,1
	0x619		
.debug_str	0xd6fd	0x15	./libs/timer_dam_lib.lib(qapi_timer_user.o)	#SHT_PROGBITS,SHF_MERGE|SHF_STRINGS,1
	0x634		
.debug_str	0xd712	0x1e	./libs/timer_dam_lib.lib(qapi_timer_user.o)	#SHT_PROGBITS,SHF_MERGE|SHF_STRINGS,1
	0x649		
.debug_str	0xd730	0x20	./libs/timer_dam_lib.lib(qapi_timer_user.o)	#SHT_PROGBITS,SHF_MERGE|SHF_STRINGS,1
	0x667		
.debug_str	0xd750	0x23	./libs/timer_dam_lib.lib(qapi_timer_user.o)	#SHT_PROGBITS,SHF_MERGE|SHF_STRINGS,1
	0x687		
.debug_str	0xd773	0x1b	./libs/timer_dam_lib.lib(qapi_timer_user.o)	#SHT_PROGBITS,SHF_MERGE|SHF_STRINGS,1
	0x6aa		
.debug_str	0xd78e	0x1d	./libs/timer_dam_lib.lib(qapi_timer_user.o)	#SHT_PROGBITS,SHF_MERGE|SHF_STRINGS,1
	0x6c5		
.debug_str	0xd7ab	0x18	./libs/timer_dam_lib.lib(qapi_timer_user.o)	#SHT_PROGBITS,SHF_MERGE|SHF_STRINGS,1
	0x6e2		
.debug_str	0xd7c3	0x21	./libs/timer_dam_lib.lib(qapi_timer_user.o)	#SHT_PROGBITS,SHF_MERGE|SHF_STRINGS,1
	0x6fa		
.debug_str	0xd7e4	0x1b	./libs/timer_dam_lib.lib(qapi_timer_user.o)	#SHT_PROGBITS,SHF_MERGE|SHF_STRINGS,1
	0x71b		
.debug_str	0xd7ff	0x1c	./libs/timer_dam_lib.lib(qapi_timer_user.o)	#SHT_PROGBITS,SHF_MERGE|SHF_STRINGS,1
	0x736		
.debug_str	0xd81b	0x1b	./libs/timer_dam_lib.lib(qapi_timer_user.o)	#SHT_PROGBITS,SHF_MERGE|SHF_STRINGS,1
	0x752		
.debug_str	0xd836	0xc	./libs/timer_dam_lib.lib(qapi_timer_user.o)	#SHT_PROGBITS,SHF_MERGE|SHF_STRINGS,1
	0x76d		
.debug_str	0xd842	0xe	./libs/timer_dam_lib.lib(qapi_timer_user.o)	#SHT_PROGBITS,SHF_MERGE|SHF_STRINGS,1
	0x779		
.debug_str	0xd850	0x19	./libs/timer_dam_lib.lib(qapi_timer_user.o)	#SHT_PROGBITS,SHF_MERGE|SHF_STRINGS,1
	0x787		
.debug_str	0xd869	0xf	./libs/timer_dam_lib.lib(qapi_timer_user.o)	#SHT_PROGBITS,SHF_MERGE|SHF_STRINGS,1
	0x7a0		
.debug_str	0xd878	0x11	./libs/timer_dam_lib.lib(qapi_timer_user.o)	#SHT_PROGBITS,SHF_MERGE|SHF_STRINGS,1
	0x7af		
.debug_str	0xd889	0x1b	./libs/timer_dam_lib.lib(qapi_timer_user.o)	#SHT_PROGBITS,SHF_MERGE|SHF_STRINGS,1
	0x7c0		
.debug_str	0xd8a4	0x19	./libs/timer_dam_lib.lib(qapi_timer_user.o)	#SHT_PROGBITS,SHF_MERGE|SHF_STRINGS,1
	0x7db		
.debug_str	0xd8bd	0x19	./libs/timer_dam_lib.lib(qapi_timer_user.o)	#SHT_PROGBITS,SHF_MERGE|SHF_STRINGS,1
	0x7f4		
.debug_str	0xd8d6	0x16	./libs/timer_dam_lib.lib(qapi_timer_user.o)	#SHT_PROGBITS,SHF_MERGE|SHF_STRINGS,1
	0x80d		
.debug_str	0xd8ec	0x1a	./libs/timer_dam_lib.lib(qapi_timer_user.o)	#SHT_PROGBITS,SHF_MERGE|SHF_STRINGS,1
	0x823		
.debug_str	0xd906	0x22	./libs/timer_dam_lib.lib(qapi_timer_user.o)	#SHT_PROGBITS,SHF_MERGE|SHF_STRINGS,1
	0x83d		
.debug_str	0xd928	0x14	./libs/timer_dam_lib.lib(qapi_timer_user.o)	#SHT_PROGBITS,SHF_MERGE|SHF_STRINGS,1
	0x85f		
.debug_str	0xd93c	0x18	./libs/timer_dam_lib.lib(qapi_timer_user.o)	#SHT_PROGBITS,SHF_MERGE|SHF_STRINGS,1
	0x873		
.debug_str	0xd954	0x10	./libs/timer_dam_lib.lib(qapi_timer_user.o)	#SHT_PROGBITS,SHF_MERGE|SHF_STRINGS,1
	0x88b		
.debug_str	0xd964	0x1c	./libs/timer_dam_lib.lib(qapi_timer_user.o)	#SHT_PROGBITS,SHF_MERGE|SHF_STRINGS,1
	0x89b		
.debug_str	0xd980	0x4	./libs/timer_dam_lib.lib(qapi_timer_user.o)	#SHT_PROGBITS,SHF_MERGE|SHF_STRINGS,1
	0x8b7		
.debug_str	0xd984	0x9	./libs/timer_dam_lib.lib(qapi_timer_user.o)	#SHT_PROGBITS,SHF_MERGE|SHF_STRINGS,1
	0x8bb		
.debug_str	0xd98d	0x15	./libs/timer_dam_lib.lib(qapi_timer_user.o)	#SHT_PROGBITS,SHF_MERGE|SHF_STRINGS,1
	0x8c4		
.debug_str	0xd9a2	0x17	./libs/timer_dam_lib.lib(qapi_timer_user.o)	#SHT_PROGBITS,SHF_MERGE|SHF_STRINGS,1
	0x8d9		
.debug_str	0xd9b9	0x1a	./libs/timer_dam_lib.lib(qapi_timer_user.o)	#SHT_PROGBITS,SHF_MERGE|SHF_STRINGS,1
	0x8f0		
.debug_str	0xd9d3	0x15	./libs/timer_dam_lib.lib(qapi_timer_user.o)	#SHT_PROGBITS,SHF_MERGE|SHF_STRINGS,1
	0x90a		
.debug_str	0xd9e8	0x11	./libs/timer_dam_lib.lib(qapi_timer_user.o)	#SHT_PROGBITS,SHF_MERGE|SHF_STRINGS,1
	0x91f		
.debug_str	0xd9f9	0xa	./libs/timer_dam_lib.lib(qapi_timer_user.o)	#SHT_PROGBITS,SHF_MERGE|SHF_STRINGS,1
	0x930		
.debug_str	0xda03	0x13	./libs/timer_dam_lib.lib(qapi_timer_user.o)	#SHT_PROGBITS,SHF_MERGE|SHF_STRINGS,1
	0x93a		
.debug_str	0xda16	0xe	./libs/timer_dam_lib.lib(qapi_timer_user.o)	#SHT_PROGBITS,SHF_MERGE|SHF_STRINGS,1
	0x94d		
.debug_str	0xda24	0x6	./libs/timer_dam_lib.lib(qapi_timer_user.o)	#SHT_PROGBITS,SHF_MERGE|SHF_STRINGS,1
	0x95b		
.debug_str	0xda2a	0x12	./libs/timer_dam_lib.lib(qapi_timer_user.o)	#SHT_PROGBITS,SHF_MERGE|SHF_STRINGS,1
	0x961		
.debug_str	0xda3c	0x13	./libs/timer_dam_lib.lib(qapi_timer_user.o)	#SHT_PROGBITS,SHF_MERGE|SHF_STRINGS,1
	0x973		
.debug_str	0xda4f	0x1a	./libs/timer_dam_lib.lib(qapi_timer_user.o)	#SHT_PROGBITS,SHF_MERGE|SHF_STRINGS,1
	0x986		
.debug_str	0xda69	0x21	./libs/timer_dam_lib.lib(qapi_timer_user.o)	#SHT_PROGBITS,SHF_MERGE|SHF_STRINGS,1
	0x9a0		
.debug_str	0xda8a	0x19	./libs/timer_dam_lib.lib(qapi_timer_user.o)	#SHT_PROGBITS,SHF_MERGE|SHF_STRINGS,1
	0x9c1		
.debug_str	0xdaa3	0x1f	./libs/timer_dam_lib.lib(qapi_timer_user.o)	#SHT_PROGBITS,SHF_MERGE|SHF_STRINGS,1
	0x9da		
.debug_str	0xdac2	0x15	./libs/timer_dam_lib.lib(qapi_timer_user.o)	#SHT_PROGBITS,SHF_MERGE|SHF_STRINGS,1
	0x9f9		
.debug_str	0xdad7	0x15	./libs/timer_dam_lib.lib(qapi_timer_user.o)	#SHT_PROGBITS,SHF_MERGE|SHF_STRINGS,1
	0xa0e		
.debug_str	0xdaec	0x15	./libs/timer_dam_lib.lib(qapi_timer_user.o)	#SHT_PROGBITS,SHF_MERGE|SHF_STRINGS,1
	0xa23		
.debug_str	0xdb01	0x14	./libs/timer_dam_lib.lib(qapi_timer_user.o)	#SHT_PROGBITS,SHF_MERGE|SHF_STRINGS,1
	0xa38		
.debug_str	0xdb15	0x14	./libs/timer_dam_lib.lib(qapi_timer_user.o)	#SHT_PROGBITS,SHF_MERGE|SHF_STRINGS,1
	0xa4c		
.debug_str	0xdb29	0x15	./libs/timer_dam_lib.lib(qapi_timer_user.o)	#SHT_PROGBITS,SHF_MERGE|SHF_STRINGS,1
	0xa60		
.debug_str	0xdb3e	0x14	./libs/timer_dam_lib.lib(qapi_timer_user.o)	#SHT_PROGBITS,SHF_MERGE|SHF_STRINGS,1
	0xa75		
.debug_str	0xdb52	0x21	./libs/timer_dam_lib.lib(qapi_timer_user.o)	#SHT_PROGBITS,SHF_MERGE|SHF_STRINGS,1
	0xa89		
.debug_str	0xdb73	0x25	./libs/timer_dam_lib.lib(qapi_timer_user.o)	#SHT_PROGBITS,SHF_MERGE|SHF_STRINGS,1
	0xaaa		
.debug_str	0xdb98	0x26	./libs/timer_dam_lib.lib(qapi_timer_user.o)	#SHT_PROGBITS,SHF_MERGE|SHF_STRINGS,1
	0xacf		
.debug_str	0xdbbe	0x1a	./libs/timer_dam_lib.lib(qapi_timer_user.o)	#SHT_PROGBITS,SHF_MERGE|SHF_STRINGS,1
	0xaf5		
.debug_str	0xdbd8	0x10	./libs/timer_dam_lib.lib(qapi_timer_user.o)	#SHT_PROGBITS,SHF_MERGE|SHF_STRINGS,1
	0xb0f		
.debug_str	0xdbe8	0x10	./libs/timer_dam_lib.lib(qapi_timer_user.o)	#SHT_PROGBITS,SHF_MERGE|SHF_STRINGS,1
	0xb1f		
.debug_str	0xdbf8	0xf	./libs/timer_dam_lib.lib(qapi_timer_user.o)	#SHT_PROGBITS,SHF_MERGE|SHF_STRINGS,1
	0xb2f		
.debug_str	0xdc07	0x11	./libs/timer_dam_lib.lib(qapi_timer_user.o)	#SHT_PROGBITS,SHF_MERGE|SHF_STRINGS,1
	0xb3e		
.debug_str	0xdc18	0x4	./libs/timer_dam_lib.lib(qapi_timer_user.o)	#SHT_PROGBITS,SHF_MERGE|SHF_STRINGS,1
	0xb4f		
.debug_str	0xdc1c	0x8	./libs/timer_dam_lib.lib(qapi_timer_user.o)	#SHT_PROGBITS,SHF_MERGE|SHF_STRINGS,1
	0xb53		
.debug_str	0xdc24	0xe	./libs/timer_dam_lib.lib(qapi_timer_user.o)	#SHT_PROGBITS,SHF_MERGE|SHF_STRINGS,1
	0xb5b		
.debug_str	0xdc32	0x10	./libs/timer_dam_lib.lib(qapi_timer_user.o)	#SHT_PROGBITS,SHF_MERGE|SHF_STRINGS,1
	0xb69		
.debug_str	0xdc42	0x16	./libs/timer_dam_lib.lib(qapi_timer_user.o)	#SHT_PROGBITS,SHF_MERGE|SHF_STRINGS,1
	0xb79		
.debug_str	0xdc58	0x18	./libs/timer_dam_lib.lib(qapi_timer_user.o)	#SHT_PROGBITS,SHF_MERGE|SHF_STRINGS,1
	0xb8f		
.debug_str	0xdc70	0x15	./libs/timer_dam_lib.lib(qapi_timer_user.o)	#SHT_PROGBITS,SHF_MERGE|SHF_STRINGS,1
	0xba7		
.debug_str	0xdc85	0xf	./libs/timer_dam_lib.lib(qapi_timer_user.o)	#SHT_PROGBITS,SHF_MERGE|SHF_STRINGS,1
	0xbbc		
.debug_str	0xdc94	0xf	./libs/timer_dam_lib.lib(qapi_timer_user.o)	#SHT_PROGBITS,SHF_MERGE|SHF_STRINGS,1
	0xbcb		
.debug_str	0xdca3	0x1a	./libs/timer_dam_lib.lib(qapi_timer_user.o)	#SHT_PROGBITS,SHF_MERGE|SHF_STRINGS,1
	0xbda		
.debug_str	0xdcbd	0x11	./libs/timer_dam_lib.lib(qapi_timer_user.o)	#SHT_PROGBITS,SHF_MERGE|SHF_STRINGS,1
	0xbf4		
.debug_str	0xdcce	0x11	./libs/timer_dam_lib.lib(qapi_timer_user.o)	#SHT_PROGBITS,SHF_MERGE|SHF_STRINGS,1
	0xc05		
.debug_str	0xdcdf	0x10	./libs/timer_dam_lib.lib(qapi_timer_user.o)	#SHT_PROGBITS,SHF_MERGE|SHF_STRINGS,1
	0xc16		
.debug_str	0xdcef	0xe	./libs/timer_dam_lib.lib(qapi_timer_user.o)	#SHT_PROGBITS,SHF_MERGE|SHF_STRINGS,1
	0xc26		
.debug_str	0xdcfd	0xe	./libs/timer_dam_lib.lib(qapi_timer_user.o)	#SHT_PROGBITS,SHF_MERGE|SHF_STRINGS,1
	0xc34		
.debug_str	0xdd0b	0x9	./libs/timer_dam_lib.lib(qapi_timer_user.o)	#SHT_PROGBITS,SHF_MERGE|SHF_STRINGS,1
	0xc42		
.debug_str	0xdd14	0x5	./libs/timer_dam_lib.lib(qapi_timer_user.o)	#SHT_PROGBITS,SHF_MERGE|SHF_STRINGS,1
	0xc4b		
.debug_str	0xdd19	0x18	./libs/timer_dam_lib.lib(qapi_timer_user.o)	#SHT_PROGBITS,SHF_MERGE|SHF_STRINGS,1
	0xc50		
.debug_str	0xdd31	0x4	./libs/timer_dam_lib.lib(qapi_timer_user.o)	#SHT_PROGBITS,SHF_MERGE|SHF_STRINGS,1
	0xc68		
.debug_str	0xdd35	0xd	./libs/timer_dam_lib.lib(qapi_timer_user.o)	#SHT_PROGBITS,SHF_MERGE|SHF_STRINGS,1
	0xc6c		
.debug_str	0xdd42	0x14	./libs/timer_dam_lib.lib(qapi_timer_user.o)	#SHT_PROGBITS,SHF_MERGE|SHF_STRINGS,1
	0xc79		
.debug_str	0xdd56	0xb	./libs/timer_dam_lib.lib(qapi_timer_user.o)	#SHT_PROGBITS,SHF_MERGE|SHF_STRINGS,1
	0xc8d		
.debug_str	0xdd61	0xb	./libs/timer_dam_lib.lib(qapi_timer_user.o)	#SHT_PROGBITS,SHF_MERGE|SHF_STRINGS,1
	0xc98		
.debug_str	0xdd6c	0x8	./libs/timer_dam_lib.lib(qapi_timer_user.o)	#SHT_PROGBITS,SHF_MERGE|SHF_STRINGS,1
	0xca3		
.debug_str	0xdd74	0x8	./libs/timer_dam_lib.lib(qapi_timer_user.o)	#SHT_PROGBITS,SHF_MERGE|SHF_STRINGS,1
	0xcab		
.debug_str	0xdd7c	0x14	./libs/timer_dam_lib.lib(qapi_timer_user.o)	#SHT_PROGBITS,SHF_MERGE|SHF_STRINGS,1
	0xcb3		
.debug_str	0xdd90	0xe	./libs/timer_dam_lib.lib(qapi_timer_user.o)	#SHT_PROGBITS,SHF_MERGE|SHF_STRINGS,1
	0xcc7		
.debug_str	0xdd9e	0xf	./libs/timer_dam_lib.lib(qapi_timer_user.o)	#SHT_PROGBITS,SHF_MERGE|SHF_STRINGS,1
	0xcd5		
.debug_str	0xddad	0x19	./libs/timer_dam_lib.lib(qapi_timer_user.o)	#SHT_PROGBITS,SHF_MERGE|SHF_STRINGS,1
	0xce4		
.debug_str	0xddc6	0x5	./libs/timer_dam_lib.lib(qapi_timer_user.o)	#SHT_PROGBITS,SHF_MERGE|SHF_STRINGS,1
	0xcfd		
.debug_str	0xddcb	0x9	./libs/timer_dam_lib.lib(qapi_timer_user.o)	#SHT_PROGBITS,SHF_MERGE|SHF_STRINGS,1
	0xd02		
.debug_str	0xddd4	0x7	./libs/timer_dam_lib.lib(qapi_timer_user.o)	#SHT_PROGBITS,SHF_MERGE|SHF_STRINGS,1
	0xd0b		
.debug_str	0xdddb	0x5	./libs/timer_dam_lib.lib(qapi_timer_user.o)	#SHT_PROGBITS,SHF_MERGE|SHF_STRINGS,1
	0xd12		
.debug_str	0xdde0	0x15	./libs/timer_dam_lib.lib(qapi_timer_user.o)	#SHT_PROGBITS,SHF_MERGE|SHF_STRINGS,1
	0xd17		
.debug_str	0xddf5	0x16	./libs/timer_dam_lib.lib(qapi_timer_user.o)	#SHT_PROGBITS,SHF_MERGE|SHF_STRINGS,1
	0xd2c		
.debug_str	0xde0b	0x14	./libs/timer_dam_lib.lib(qapi_timer_user.o)	#SHT_PROGBITS,SHF_MERGE|SHF_STRINGS,1
	0xd42		
.debug_str	0xde1f	0xb	./libs/timer_dam_lib.lib(qapi_timer_user.o)	#SHT_PROGBITS,SHF_MERGE|SHF_STRINGS,1
	0xd56		
.debug_str	0xde2a	0x15	./libs/timer_dam_lib.lib(qapi_timer_user.o)	#SHT_PROGBITS,SHF_MERGE|SHF_STRINGS,1
	0xd61		
.debug_str	0xde3f	0x1b	./libs/timer_dam_lib.lib(qapi_timer_user.o)	#SHT_PROGBITS,SHF_MERGE|SHF_STRINGS,1
	0xd76		
.debug_str	0xde5a	0xf	./libs/timer_dam_lib.lib(qapi_timer_user.o)	#SHT_PROGBITS,SHF_MERGE|SHF_STRINGS,1
	0xd91		
.debug_str	0xde69	0x8	./libs/timer_dam_lib.lib(qapi_timer_user.o)	#SHT_PROGBITS,SHF_MERGE|SHF_STRINGS,1
	0xda0		
.debug_str	0xde71	0xe	./libs/timer_dam_lib.lib(qapi_timer_user.o)	#SHT_PROGBITS,SHF_MERGE|SHF_STRINGS,1
	0xda8		
.debug_str	0xde7f	0x14	./libs/timer_dam_lib.lib(qapi_timer_user.o)	#SHT_PROGBITS,SHF_MERGE|SHF_STRINGS,1
	0xdb6		
.debug_str	0xde93	0x8	./libs/timer_dam_lib.lib(qapi_timer_user.o)	#SHT_PROGBITS,SHF_MERGE|SHF_STRINGS,1
	0xdca		
.debug_str	0xde9b	0xb	./libs/timer_dam_lib.lib(qapi_timer_user.o)	#SHT_PROGBITS,SHF_MERGE|SHF_STRINGS,1
	0xdd2		
.debug_str	0xdea6	0xf	./libs/timer_dam_lib.lib(qapi_timer_user.o)	#SHT_PROGBITS,SHF_MERGE|SHF_STRINGS,1
	0xddd		
.debug_str	0xdeb5	0xb	./libs/timer_dam_lib.lib(qapi_timer_user.o)	#SHT_PROGBITS,SHF_MERGE|SHF_STRINGS,1
	0xdec		
.debug_str	0xdec0	0xa	./libs/timer_dam_lib.lib(qapi_timer_user.o)	#SHT_PROGBITS,SHF_MERGE|SHF_STRINGS,1
	0xdf7		
.debug_str	0xdeca	0xc	./libs/timer_dam_lib.lib(qapi_timer_user.o)	#SHT_PROGBITS,SHF_MERGE|SHF_STRINGS,1
	0xe01		
.debug_str	0xded6	0x5	./libs/timer_dam_lib.lib(qapi_timer_user.o)	#SHT_PROGBITS,SHF_MERGE|SHF_STRINGS,1
	0xe0d		
.debug_str	0xdedb	0xf	./libs/timer_dam_lib.lib(qapi_timer_user.o)	#SHT_PROGBITS,SHF_MERGE|SHF_STRINGS,1
	0xe12		
.debug_str	0xdeea	0x9	./libs/timer_dam_lib.lib(qapi_timer_user.o)	#SHT_PROGBITS,SHF_MERGE|SHF_STRINGS,1
	0xe21		
.debug_str	0xdef3	0x6	./libs/timer_dam_lib.lib(qapi_timer_user.o)	#SHT_PROGBITS,SHF_MERGE|SHF_STRINGS,1
	0xe2a		
.debug_str	0xdef9	0x4	./libs/timer_dam_lib.lib(qapi_timer_user.o)	#SHT_PROGBITS,SHF_MERGE|SHF_STRINGS,1
	0xe30		
.debug_str	0xdefd	0x5	./libs/timer_dam_lib.lib(qapi_timer_user.o)	#SHT_PROGBITS,SHF_MERGE|SHF_STRINGS,1
	0xe34		
.debug_str	0xdf02	0x7	./libs/timer_dam_lib.lib(qapi_timer_user.o)	#SHT_PROGBITS,SHF_MERGE|SHF_STRINGS,1
	0xe39		
.debug_str	0xdf09	0x7	./libs/timer_dam_lib.lib(qapi_timer_user.o)	#SHT_PROGBITS,SHF_MERGE|SHF_STRINGS,1
	0xe40		
.debug_str	0xdf10	0xc	./libs/timer_dam_lib.lib(qapi_timer_user.o)	#SHT_PROGBITS,SHF_MERGE|SHF_STRINGS,1
	0xe47		
.debug_str	0xdf1c	0x16	./libs/timer_dam_lib.lib(qapi_timer_user.o)	#SHT_PROGBITS,SHF_MERGE|SHF_STRINGS,1
	0xe53		
.debug_str	0xdf32	0x10	./libs/timer_dam_lib.lib(qapi_timer_user.o)	#SHT_PROGBITS,SHF_MERGE|SHF_STRINGS,1
	0xe69		
.debug_str	0xdf42	0xa9	./libs/txm_lib.lib(txm_module_thread_shell_entry.o)	#SHT_PROGBITS,SHF_MERGE|SHF_STRINGS,1
	0xe79		
.debug_str	0xdfeb	0x17	./libs/txm_lib.lib(txm_module_thread_shell_entry.o)	#SHT_PROGBITS,SHF_MERGE|SHF_STRINGS,1
	0xf22		
.debug_str	0xe002	0x24	./libs/txm_lib.lib(txm_module_thread_shell_entry.o)	#SHT_PROGBITS,SHF_MERGE|SHF_STRINGS,1
	0xf39		
.debug_str	0xe026	0x24	./libs/txm_lib.lib(txm_module_thread_shell_entry.o)	#SHT_PROGBITS,SHF_MERGE|SHF_STRINGS,1
	0xf5d		
.debug_str	0xe04a	0x17	./libs/txm_lib.lib(txm_module_thread_shell_entry.o)	#SHT_PROGBITS,SHF_MERGE|SHF_STRINGS,1
	0xf81		
.debug_str	0xe061	0x19	./libs/txm_lib.lib(txm_module_thread_shell_entry.o)	#SHT_PROGBITS,SHF_MERGE|SHF_STRINGS,1
	0xf98		
.debug_str	0xe07a	0x1a	./libs/txm_lib.lib(txm_module_thread_shell_entry.o)	#SHT_PROGBITS,SHF_MERGE|SHF_STRINGS,1
	0xfb1		
.debug_str	0xe094	0x23	./libs/txm_lib.lib(txm_module_thread_shell_entry.o)	#SHT_PROGBITS,SHF_MERGE|SHF_STRINGS,1
	0xfcb		
.debug_str	0xe0b7	0x28	./libs/txm_lib.lib(txm_module_thread_shell_entry.o)	#SHT_PROGBITS,SHF_MERGE|SHF_STRINGS,1
	0xfee		
.debug_str	0xe0df	0x29	./libs/txm_lib.lib(txm_module_thread_shell_entry.o)	#SHT_PROGBITS,SHF_MERGE|SHF_STRINGS,1
	0x1016		
.debug_str	0xe108	0x1f	./libs/txm_lib.lib(txm_module_thread_shell_entry.o)	#SHT_PROGBITS,SHF_MERGE|SHF_STRINGS,1
	0x103f		
.debug_str	0xe127	0x1d	./libs/txm_lib.lib(txm_module_thread_shell_entry.o)	#SHT_PROGBITS,SHF_MERGE|SHF_STRINGS,1
	0x105e		
.debug_str	0xe144	0x1e	./libs/txm_lib.lib(txm_module_thread_shell_entry.o)	#SHT_PROGBITS,SHF_MERGE|SHF_STRINGS,1
	0x107b		
.debug_str	0xe162	0x28	./libs/txm_lib.lib(txm_module_thread_shell_entry.o)	#SHT_PROGBITS,SHF_MERGE|SHF_STRINGS,1
	0x1099		
.debug_str	0xe18a	0x29	./libs/txm_lib.lib(txm_module_thread_shell_entry.o)	#SHT_PROGBITS,SHF_MERGE|SHF_STRINGS,1
	0x10c1		
.debug_str	0xe1b3	0x1f	./libs/txm_lib.lib(txm_module_thread_shell_entry.o)	#SHT_PROGBITS,SHF_MERGE|SHF_STRINGS,1
	0x10ea		
.debug_str	0xe1d2	0x1d	./libs/txm_lib.lib(txm_module_thread_shell_entry.o)	#SHT_PROGBITS,SHF_MERGE|SHF_STRINGS,1
	0x1109		
.debug_str	0xe1ef	0x2d	./libs/txm_lib.lib(txm_module_thread_shell_entry.o)	#SHT_PROGBITS,SHF_MERGE|SHF_STRINGS,1
	0x1126		
.debug_str	0xe21c	0x1e	./libs/txm_lib.lib(txm_module_thread_shell_entry.o)	#SHT_PROGBITS,SHF_MERGE|SHF_STRINGS,1
	0x1153		
.debug_str	0xe23a	0x24	./libs/txm_lib.lib(txm_module_thread_shell_entry.o)	#SHT_PROGBITS,SHF_MERGE|SHF_STRINGS,1
	0x1171		
.debug_str	0xe25e	0x33	./libs/txm_lib.lib(txm_module_thread_shell_entry.o)	#SHT_PROGBITS,SHF_MERGE|SHF_STRINGS,1
	0x1195		
.debug_str	0xe291	0x31	./libs/txm_lib.lib(txm_module_thread_shell_entry.o)	#SHT_PROGBITS,SHF_MERGE|SHF_STRINGS,1
	0x11c8		
.debug_str	0xe2c2	0x31	./libs/txm_lib.lib(txm_module_thread_shell_entry.o)	#SHT_PROGBITS,SHF_MERGE|SHF_STRINGS,1
	0x11f9		
.debug_str	0xe2f3	0x2f	./libs/txm_lib.lib(txm_module_thread_shell_entry.o)	#SHT_PROGBITS,SHF_MERGE|SHF_STRINGS,1
	0x122a		
.debug_str	0xe322	0x21	./libs/txm_lib.lib(txm_module_thread_shell_entry.o)	#SHT_PROGBITS,SHF_MERGE|SHF_STRINGS,1
	0x1259		
.debug_str	0xe343	0x17	./libs/txm_lib.lib(txm_module_thread_shell_entry.o)	#SHT_PROGBITS,SHF_MERGE|SHF_STRINGS,1
	0x127a		
.debug_str	0xe35a	0x22	./libs/txm_lib.lib(txm_module_thread_shell_entry.o)	#SHT_PROGBITS,SHF_MERGE|SHF_STRINGS,1
	0x1291		
.debug_str	0xe37c	0x22	./libs/txm_lib.lib(txm_module_thread_shell_entry.o)	#SHT_PROGBITS,SHF_MERGE|SHF_STRINGS,1
	0x12b3		
.debug_str	0xe39e	0x22	./libs/txm_lib.lib(txm_module_thread_shell_entry.o)	#SHT_PROGBITS,SHF_MERGE|SHF_STRINGS,1
	0x12d5		
.debug_str	0xe3c0	0x2a	./libs/txm_lib.lib(txm_module_thread_shell_entry.o)	#SHT_PROGBITS,SHF_MERGE|SHF_STRINGS,1
	0x12f7		
.debug_str	0xe3ea	0x23	./libs/txm_lib.lib(txm_module_thread_shell_entry.o)	#SHT_PROGBITS,SHF_MERGE|SHF_STRINGS,1
	0x1321		
.debug_str	0xe40d	0x29	./libs/txm_lib.lib(txm_module_thread_shell_entry.o)	#SHT_PROGBITS,SHF_MERGE|SHF_STRINGS,1
	0x1344		
.debug_str	0xe436	0x23	./libs/txm_lib.lib(txm_module_thread_shell_entry.o)	#SHT_PROGBITS,SHF_MERGE|SHF_STRINGS,1
	0x136d		
.debug_str	0xe459	0x22	./libs/txm_lib.lib(txm_module_thread_shell_entry.o)	#SHT_PROGBITS,SHF_MERGE|SHF_STRINGS,1
	0x1390		
.debug_str	0xe47b	0x28	./libs/txm_lib.lib(txm_module_thread_shell_entry.o)	#SHT_PROGBITS,SHF_MERGE|SHF_STRINGS,1
	0x13b2		
.debug_str	0xe4a3	0x2a	./libs/txm_lib.lib(txm_module_thread_shell_entry.o)	#SHT_PROGBITS,SHF_MERGE|SHF_STRINGS,1
	0x13da		
.debug_str	0xe4cd	0x26	./libs/txm_lib.lib(txm_module_thread_shell_entry.o)	#SHT_PROGBITS,SHF_MERGE|SHF_STRINGS,1
	0x1404		
.debug_str	0xe4f3	0x26	./libs/txm_lib.lib(txm_module_thread_shell_entry.o)	#SHT_PROGBITS,SHF_MERGE|SHF_STRINGS,1
	0x142a		
.debug_str	0xe519	0x28	./libs/txm_lib.lib(txm_module_thread_shell_entry.o)	#SHT_PROGBITS,SHF_MERGE|SHF_STRINGS,1
	0x1450		
.debug_str	0xe541	0x1e	./libs/txm_lib.lib(txm_module_thread_shell_entry.o)	#SHT_PROGBITS,SHF_MERGE|SHF_STRINGS,1
	0x1478		
.debug_str	0xe55f	0x1e	./libs/txm_lib.lib(txm_module_thread_shell_entry.o)	#SHT_PROGBITS,SHF_MERGE|SHF_STRINGS,1
	0x1496		
.debug_str	0xe57d	0x1f	./libs/txm_lib.lib(txm_module_thread_shell_entry.o)	#SHT_PROGBITS,SHF_MERGE|SHF_STRINGS,1
	0x14b4		
.debug_str	0xe59c	0x1f	./libs/txm_lib.lib(txm_module_thread_shell_entry.o)	#SHT_PROGBITS,SHF_MERGE|SHF_STRINGS,1
	0x14d3		
.debug_str	0xe5bb	0x1f	./libs/txm_lib.lib(txm_module_thread_shell_entry.o)	#SHT_PROGBITS,SHF_MERGE|SHF_STRINGS,1
	0x14f2		
.debug_str	0xe5da	0x1f	./libs/txm_lib.lib(txm_module_thread_shell_entry.o)	#SHT_PROGBITS,SHF_MERGE|SHF_STRINGS,1
	0x1511		
.debug_str	0xe5f9	0x1f	./libs/txm_lib.lib(txm_module_thread_shell_entry.o)	#SHT_PROGBITS,SHF_MERGE|SHF_STRINGS,1
	0x1530		
.debug_str	0xe618	0x1f	./libs/txm_lib.lib(txm_module_thread_shell_entry.o)	#SHT_PROGBITS,SHF_MERGE|SHF_STRINGS,1
	0x154f		
.debug_str	0xe637	0x1f	./libs/txm_lib.lib(txm_module_thread_shell_entry.o)	#SHT_PROGBITS,SHF_MERGE|SHF_STRINGS,1
	0x156e		
.debug_str	0xe656	0x1f	./libs/txm_lib.lib(txm_module_thread_shell_entry.o)	#SHT_PROGBITS,SHF_MERGE|SHF_STRINGS,1
	0x158d		
.debug_str	0xe675	0x1f	./libs/txm_lib.lib(txm_module_thread_shell_entry.o)	#SHT_PROGBITS,SHF_MERGE|SHF_STRINGS,1
	0x15ac		
.debug_str	0xe694	0x1f	./libs/txm_lib.lib(txm_module_thread_shell_entry.o)	#SHT_PROGBITS,SHF_MERGE|SHF_STRINGS,1
	0x15cb		
.debug_str	0xe6b3	0x21	./libs/txm_lib.lib(txm_module_thread_shell_entry.o)	#SHT_PROGBITS,SHF_MERGE|SHF_STRINGS,1
	0x15ea		
.debug_str	0xe6d4	0x20	./libs/txm_lib.lib(txm_module_thread_shell_entry.o)	#SHT_PROGBITS,SHF_MERGE|SHF_STRINGS,1
	0x160b		
.debug_str	0xe6f4	0x20	./libs/txm_lib.lib(txm_module_thread_shell_entry.o)	#SHT_PROGBITS,SHF_MERGE|SHF_STRINGS,1
	0x162b		
.debug_str	0xe714	0x20	./libs/txm_lib.lib(txm_module_thread_shell_entry.o)	#SHT_PROGBITS,SHF_MERGE|SHF_STRINGS,1
	0x164b		
.debug_str	0xe734	0x20	./libs/txm_lib.lib(txm_module_thread_shell_entry.o)	#SHT_PROGBITS,SHF_MERGE|SHF_STRINGS,1
	0x166b		
.debug_str	0xe754	0x1d	./libs/txm_lib.lib(txm_module_thread_shell_entry.o)	#SHT_PROGBITS,SHF_MERGE|SHF_STRINGS,1
	0x168b		
.debug_str	0xe771	0x1b	./libs/txm_lib.lib(txm_module_thread_shell_entry.o)	#SHT_PROGBITS,SHF_MERGE|SHF_STRINGS,1
	0x16a8		
.debug_str	0xe78c	0x14	./libs/txm_lib.lib(txm_module_thread_shell_entry.o)	#SHT_PROGBITS,SHF_MERGE|SHF_STRINGS,1
	0x16c3		
.debug_str	0xe7a0	0x29	./libs/txm_lib.lib(txm_module_thread_shell_entry.o)	#SHT_PROGBITS,SHF_MERGE|SHF_STRINGS,1
	0x16d7		
.debug_str	0xe7c9	0x27	./libs/txm_lib.lib(txm_module_thread_shell_entry.o)	#SHT_PROGBITS,SHF_MERGE|SHF_STRINGS,1
	0x1700		
.debug_str	0xe7f0	0x26	./libs/txm_lib.lib(txm_module_thread_shell_entry.o)	#SHT_PROGBITS,SHF_MERGE|SHF_STRINGS,1
	0x1727		
.debug_str	0xe816	0x32	./libs/txm_lib.lib(txm_module_thread_shell_entry.o)	#SHT_PROGBITS,SHF_MERGE|SHF_STRINGS,1
	0x174d		
.debug_str	0xe848	0x26	./libs/txm_lib.lib(txm_module_thread_shell_entry.o)	#SHT_PROGBITS,SHF_MERGE|SHF_STRINGS,1
	0x177f		
.debug_str	0xe86e	0x2c	./libs/txm_lib.lib(txm_module_thread_shell_entry.o)	#SHT_PROGBITS,SHF_MERGE|SHF_STRINGS,1
	0x17a5		
.debug_str	0xe89a	0x2b	./libs/txm_lib.lib(txm_module_thread_shell_entry.o)	#SHT_PROGBITS,SHF_MERGE|SHF_STRINGS,1
	0x17d1		
.debug_str	0xe8c5	0xc	./libs/txm_lib.lib(txm_module_thread_shell_entry.o)	#SHT_PROGBITS,SHF_MERGE|SHF_STRINGS,1
	0x17fc		
.debug_str	0xe8d1	0xe	./libs/txm_lib.lib(txm_module_thread_shell_entry.o)	#SHT_PROGBITS,SHF_MERGE|SHF_STRINGS,1
	0x1808		
.debug_str	0xe8df	0x16	./libs/txm_lib.lib(txm_module_thread_shell_entry.o)	#SHT_PROGBITS,SHF_MERGE|SHF_STRINGS,1
	0x1816		
.debug_str	0xe8f5	0x12	./libs/txm_lib.lib(txm_module_thread_shell_entry.o)	#SHT_PROGBITS,SHF_MERGE|SHF_STRINGS,1
	0x182c		
.debug_str	0xe907	0x12	./libs/txm_lib.lib(txm_module_thread_shell_entry.o)	#SHT_PROGBITS,SHF_MERGE|SHF_STRINGS,1
	0x183e		
.debug_str	0xe919	0x1b	./libs/txm_lib.lib(txm_module_thread_shell_entry.o)	#SHT_PROGBITS,SHF_MERGE|SHF_STRINGS,1
	0x1850		
.debug_str	0xe934	0xf	./libs/txm_lib.lib(txm_module_thread_shell_entry.o)	#SHT_PROGBITS,SHF_MERGE|SHF_STRINGS,1
	0x186b		
.debug_str	0xe943	0xd	./libs/txm_lib.lib(txm_module_thread_shell_entry.o)	#SHT_PROGBITS,SHF_MERGE|SHF_STRINGS,1
	0x187a		
.debug_str	0xe950	0xe	./libs/txm_lib.lib(txm_module_thread_shell_entry.o)	#SHT_PROGBITS,SHF_MERGE|SHF_STRINGS,1
	0x1887		
.debug_str	0xe95e	0xf	./libs/txm_lib.lib(txm_module_thread_shell_entry.o)	#SHT_PROGBITS,SHF_MERGE|SHF_STRINGS,1
	0x1895		
.debug_str	0xe96d	0x19	./libs/txm_lib.lib(txm_module_thread_shell_entry.o)	#SHT_PROGBITS,SHF_MERGE|SHF_STRINGS,1
	0x18a4		
.debug_str	0xe986	0x19	./libs/txm_lib.lib(txm_module_thread_shell_entry.o)	#SHT_PROGBITS,SHF_MERGE|SHF_STRINGS,1
	0x18bd		
.debug_str	0xe99f	0x16	./libs/txm_lib.lib(txm_module_thread_shell_entry.o)	#SHT_PROGBITS,SHF_MERGE|SHF_STRINGS,1
	0x18d6		
.debug_str	0xe9b5	0x1a	./libs/txm_lib.lib(txm_module_thread_shell_entry.o)	#SHT_PROGBITS,SHF_MERGE|SHF_STRINGS,1
	0x18ec		
.debug_str	0xe9cf	0x10	./libs/txm_lib.lib(txm_module_thread_shell_entry.o)	#SHT_PROGBITS,SHF_MERGE|SHF_STRINGS,1
	0x1906		
.debug_str	0xe9df	0x9	./libs/txm_lib.lib(txm_module_thread_shell_entry.o)	#SHT_PROGBITS,SHF_MERGE|SHF_STRINGS,1
	0x1916		
.debug_str	0xe9e8	0x30	./libs/txm_lib.lib(txm_module_thread_shell_entry.o)	#SHT_PROGBITS,SHF_MERGE|SHF_STRINGS,1
	0x191f		
.debug_str	0xea18	0x2a	./libs/txm_lib.lib(txm_module_thread_shell_entry.o)	#SHT_PROGBITS,SHF_MERGE|SHF_STRINGS,1
	0x194f		
.debug_str	0xea42	0x28	./libs/txm_lib.lib(txm_module_thread_shell_entry.o)	#SHT_PROGBITS,SHF_MERGE|SHF_STRINGS,1
	0x1979		
.debug_str	0xea6a	0x28	./libs/txm_lib.lib(txm_module_thread_shell_entry.o)	#SHT_PROGBITS,SHF_MERGE|SHF_STRINGS,1
	0x19a1		
.debug_str	0xea92	0x26	./libs/txm_lib.lib(txm_module_thread_shell_entry.o)	#SHT_PROGBITS,SHF_MERGE|SHF_STRINGS,1
	0x19c9		
.debug_str	0xeab8	0x2a	./libs/txm_lib.lib(txm_module_thread_shell_entry.o)	#SHT_PROGBITS,SHF_MERGE|SHF_STRINGS,1
	0x19ef		
.debug_str	0xeae2	0x28	./libs/txm_lib.lib(txm_module_thread_shell_entry.o)	#SHT_PROGBITS,SHF_MERGE|SHF_STRINGS,1
	0x1a19		
.debug_str	0xeb0a	0x28	./libs/txm_lib.lib(txm_module_thread_shell_entry.o)	#SHT_PROGBITS,SHF_MERGE|SHF_STRINGS,1
	0x1a41		
.debug_str	0xeb32	0x25	./libs/txm_lib.lib(txm_module_thread_shell_entry.o)	#SHT_PROGBITS,SHF_MERGE|SHF_STRINGS,1
	0x1a69		
.debug_str	0xeb57	0x19	./libs/txm_lib.lib(txm_module_thread_shell_entry.o)	#SHT_PROGBITS,SHF_MERGE|SHF_STRINGS,1
	0x1a8e		
.debug_str	0xeb70	0x18	./libs/txm_lib.lib(txm_module_thread_shell_entry.o)	#SHT_PROGBITS,SHF_MERGE|SHF_STRINGS,1
	0x1aa7		
.debug_str	0xeb88	0x1e	./libs/txm_lib.lib(txm_module_thread_shell_entry.o)	#SHT_PROGBITS,SHF_MERGE|SHF_STRINGS,1
	0x1abf		
.debug_str	0xeba6	0x1e	./libs/txm_lib.lib(txm_module_thread_shell_entry.o)	#SHT_PROGBITS,SHF_MERGE|SHF_STRINGS,1
	0x1add		
.debug_str	0xebc4	0x15	./libs/txm_lib.lib(txm_module_thread_shell_entry.o)	#SHT_PROGBITS,SHF_MERGE|SHF_STRINGS,1
	0x1afb		
.debug_str	0xebd9	0x14	./libs/txm_lib.lib(txm_module_thread_shell_entry.o)	#SHT_PROGBITS,SHF_MERGE|SHF_STRINGS,1
	0x1b10		
.debug_str	0xebed	0x25	./libs/txm_lib.lib(txm_module_thread_shell_entry.o)	#SHT_PROGBITS,SHF_MERGE|SHF_STRINGS,1
	0x1b24		
.debug_str	0xec12	0x2c	./libs/txm_lib.lib(txm_module_thread_shell_entry.o)	#SHT_PROGBITS,SHF_MERGE|SHF_STRINGS,1
	0x1b49		
.debug_str	0xec3e	0x21	./libs/txm_lib.lib(txm_module_thread_shell_entry.o)	#SHT_PROGBITS,SHF_MERGE|SHF_STRINGS,1
	0x1b75		
.debug_str	0xec5f	0x25	./libs/txm_lib.lib(txm_module_thread_shell_entry.o)	#SHT_PROGBITS,SHF_MERGE|SHF_STRINGS,1
	0x1b96		
.debug_str	0xec84	0x17	./libs/txm_lib.lib(txm_module_thread_shell_entry.o)	#SHT_PROGBITS,SHF_MERGE|SHF_STRINGS,1
	0x1bbb		
.debug_str	0xec9b	0x23	./libs/txm_lib.lib(txm_module_thread_shell_entry.o)	#SHT_PROGBITS,SHF_MERGE|SHF_STRINGS,1
	0x1bd2		
.debug_str	0xecbe	0x26	./libs/txm_lib.lib(txm_module_thread_shell_entry.o)	#SHT_PROGBITS,SHF_MERGE|SHF_STRINGS,1
	0x1bf5		
.debug_str	0xece4	0x20	./libs/txm_lib.lib(txm_module_thread_shell_entry.o)	#SHT_PROGBITS,SHF_MERGE|SHF_STRINGS,1
	0x1c1b		
.debug_str	0xed04	0x24	./libs/txm_lib.lib(txm_module_thread_shell_entry.o)	#SHT_PROGBITS,SHF_MERGE|SHF_STRINGS,1
	0x1c3b		
.debug_str	0xed28	0x1b	./libs/txm_lib.lib(txm_module_thread_shell_entry.o)	#SHT_PROGBITS,SHF_MERGE|SHF_STRINGS,1
	0x1c5f		
.debug_str	0xed43	0x14	./libs/txm_lib.lib(txm_module_thread_shell_entry.o)	#SHT_PROGBITS,SHF_MERGE|SHF_STRINGS,1
	0x1c7a		
.debug_str	0xed57	0x2f	./libs/txm_lib.lib(txm_module_thread_shell_entry.o)	#SHT_PROGBITS,SHF_MERGE|SHF_STRINGS,1
	0x1c8e		
.debug_str	0xed86	0x2f	./libs/txm_lib.lib(txm_module_thread_shell_entry.o)	#SHT_PROGBITS,SHF_MERGE|SHF_STRINGS,1
	0x1cbd		
.debug_str	0xedb5	0x23	./libs/txm_lib.lib(txm_module_thread_shell_entry.o)	#SHT_PROGBITS,SHF_MERGE|SHF_STRINGS,1
	0x1cec		
.debug_str	0xedd8	0x27	./libs/txm_lib.lib(txm_module_thread_shell_entry.o)	#SHT_PROGBITS,SHF_MERGE|SHF_STRINGS,1
	0x1d0f		
.debug_str	0xedff	0x29	./libs/txm_lib.lib(txm_module_thread_shell_entry.o)	#SHT_PROGBITS,SHF_MERGE|SHF_STRINGS,1
	0x1d36		
.debug_str	0xee28	0x2a	./libs/txm_lib.lib(txm_module_thread_shell_entry.o)	#SHT_PROGBITS,SHF_MERGE|SHF_STRINGS,1
	0x1d5f		
.debug_str	0xee52	0x35	./libs/txm_lib.lib(txm_module_thread_shell_entry.o)	#SHT_PROGBITS,SHF_MERGE|SHF_STRINGS,1
	0x1d89		
.debug_str	0xee87	0x34	./libs/txm_lib.lib(txm_module_thread_shell_entry.o)	#SHT_PROGBITS,SHF_MERGE|SHF_STRINGS,1
	0x1dbe		
.debug_str	0xeebb	0x35	./libs/txm_lib.lib(txm_module_thread_shell_entry.o)	#SHT_PROGBITS,SHF_MERGE|SHF_STRINGS,1
	0x1df2		
.debug_str	0xeef0	0x34	./libs/txm_lib.lib(txm_module_thread_shell_entry.o)	#SHT_PROGBITS,SHF_MERGE|SHF_STRINGS,1
	0x1e27		
.debug_str	0xef24	0x24	./libs/txm_lib.lib(txm_module_thread_shell_entry.o)	#SHT_PROGBITS,SHF_MERGE|SHF_STRINGS,1
	0x1e5b		
.debug_str	0xef48	0x1d	./libs/txm_lib.lib(txm_module_thread_shell_entry.o)	#SHT_PROGBITS,SHF_MERGE|SHF_STRINGS,1
	0x1e7f		
.debug_str	0xef65	0x19	./libs/txm_lib.lib(txm_module_thread_shell_entry.o)	#SHT_PROGBITS,SHF_MERGE|SHF_STRINGS,1
	0x1e9c		
.debug_str	0xef7e	0x23	./libs/txm_lib.lib(txm_module_thread_shell_entry.o)	#SHT_PROGBITS,SHF_MERGE|SHF_STRINGS,1
	0x1eb5		
.debug_str	0xefa1	0xa	./libs/txm_lib.lib(txm_module_thread_shell_entry.o)	#SHT_PROGBITS,SHF_MERGE|SHF_STRINGS,1
	0x1ed8		
.debug_str	0xefab	0x1f	./libs/txm_lib.lib(txm_module_thread_shell_entry.o)	#SHT_PROGBITS,SHF_MERGE|SHF_STRINGS,1
	0x1ee2		
.debug_str	0xefca	0xb	./libs/txm_lib.lib(txm_module_thread_shell_entry.o)	#SHT_PROGBITS,SHF_MERGE|SHF_STRINGS,1
	0x1f01		
.debug_str	0xefd5	0xc	./libs/txm_lib.lib(txm_module_thread_shell_entry.o)	#SHT_PROGBITS,SHF_MERGE|SHF_STRINGS,1
	0x1f0c		
.debug_str	0xefe1	0xb4	./libs/txm_lib.lib(txm_module_callback_request_thread_entry.o)	#SHT_PROGBITS,SHF_MERGE|SHF_STRINGS,1
	0x1f18		
.debug_str	0xf095	0x18	./libs/txm_lib.lib(txm_module_callback_request_thread_entry.o)	#SHT_PROGBITS,SHF_MERGE|SHF_STRINGS,1
	0x1fcc		
.debug_str	0xf0ad	0x1a	./libs/txm_lib.lib(txm_module_callback_request_thread_entry.o)	#SHT_PROGBITS,SHF_MERGE|SHF_STRINGS,1
	0x1fe4		
.debug_str	0xf0c7	0x1d	./libs/txm_lib.lib(txm_module_callback_request_thread_entry.o)	#SHT_PROGBITS,SHF_MERGE|SHF_STRINGS,1
	0x1ffe		
.debug_str	0xf0e4	0x22	./libs/txm_lib.lib(txm_module_callback_request_thread_entry.o)	#SHT_PROGBITS,SHF_MERGE|SHF_STRINGS,1
	0x201b		
.debug_str	0xf106	0x25	./libs/txm_lib.lib(txm_module_callback_request_thread_entry.o)	#SHT_PROGBITS,SHF_MERGE|SHF_STRINGS,1
	0x203d		
.debug_str	0xf12b	0x25	./libs/txm_lib.lib(txm_module_callback_request_thread_entry.o)	#SHT_PROGBITS,SHF_MERGE|SHF_STRINGS,1
	0x2062		
.debug_str	0xf150	0x22	./libs/txm_lib.lib(txm_module_callback_request_thread_entry.o)	#SHT_PROGBITS,SHF_MERGE|SHF_STRINGS,1
	0x2087		
.debug_str	0xf172	0x26	./libs/txm_lib.lib(txm_module_callback_request_thread_entry.o)	#SHT_PROGBITS,SHF_MERGE|SHF_STRINGS,1
	0x20a9		
.debug_str	0xf198	0x23	./libs/txm_lib.lib(txm_module_callback_request_thread_entry.o)	#SHT_PROGBITS,SHF_MERGE|SHF_STRINGS,1
	0x20cf		
.debug_str	0xf1bb	0x1c	./libs/txm_lib.lib(txm_module_callback_request_thread_entry.o)	#SHT_PROGBITS,SHF_MERGE|SHF_STRINGS,1
	0x20f2		
.debug_str	0xf1d7	0x15	./libs/txm_lib.lib(txm_module_callback_request_thread_entry.o)	#SHT_PROGBITS,SHF_MERGE|SHF_STRINGS,1
	0x210e		
.debug_str	0xf1ec	0x10	./libs/txm_lib.lib(txm_module_callback_request_thread_entry.o)	#SHT_PROGBITS,SHF_MERGE|SHF_STRINGS,1
	0x2123		
.debug_str	0xf1fc	0x12	./libs/txm_lib.lib(txm_module_callback_request_thread_entry.o)	#SHT_PROGBITS,SHF_MERGE|SHF_STRINGS,1
	0x2133		
.debug_str	0xf20e	0x13	./libs/txm_lib.lib(txm_module_callback_request_thread_entry.o)	#SHT_PROGBITS,SHF_MERGE|SHF_STRINGS,1
	0x2145		
.debug_str	0xf221	0x1d	./libs/txm_lib.lib(txm_module_callback_request_thread_entry.o)	#SHT_PROGBITS,SHF_MERGE|SHF_STRINGS,1
	0x2158		
.debug_str	0xf23e	0x1d	./libs/txm_lib.lib(txm_module_callback_request_thread_entry.o)	#SHT_PROGBITS,SHF_MERGE|SHF_STRINGS,1
	0x2175		
.debug_str	0xf25b	0x1a	./libs/txm_lib.lib(txm_module_callback_request_thread_entry.o)	#SHT_PROGBITS,SHF_MERGE|SHF_STRINGS,1
	0x2192		
.debug_str	0xf275	0x1e	./libs/txm_lib.lib(txm_module_callback_request_thread_entry.o)	#SHT_PROGBITS,SHF_MERGE|SHF_STRINGS,1
	0x21ac		
.debug_str	0xf293	0x14	./libs/txm_lib.lib(txm_module_callback_request_thread_entry.o)	#SHT_PROGBITS,SHF_MERGE|SHF_STRINGS,1
	0x21ca		
.debug_str	0xf2a7	0xd	./libs/txm_lib.lib(txm_module_callback_request_thread_entry.o)	#SHT_PROGBITS,SHF_MERGE|SHF_STRINGS,1
	0x21de		
.debug_str	0xf2b4	0x18	./libs/txm_lib.lib(txm_module_callback_request_thread_entry.o)	#SHT_PROGBITS,SHF_MERGE|SHF_STRINGS,1
	0x21eb		
.debug_str	0xf2cc	0x2a	./libs/txm_lib.lib(txm_module_callback_request_thread_entry.o)	#SHT_PROGBITS,SHF_MERGE|SHF_STRINGS,1
	0x2203		
.debug_str	0xf2f6	0x3	./libs/txm_lib.lib(txm_module_callback_request_thread_entry.o)	#SHT_PROGBITS,SHF_MERGE|SHF_STRINGS,1
	0x222d		
.debug_str	0xf2f9	0x7	./libs/txm_lib.lib(txm_module_callback_request_thread_entry.o)	#SHT_PROGBITS,SHF_MERGE|SHF_STRINGS,1
	0x2230		
.debug_str	0xf300	0xf	./libs/txm_lib.lib(txm_module_callback_request_thread_entry.o)	#SHT_PROGBITS,SHF_MERGE|SHF_STRINGS,1
	0x2237		
.debug_str	0xf30f	0x19	./libs/txm_lib.lib(txm_module_callback_request_thread_entry.o)	#SHT_PROGBITS,SHF_MERGE|SHF_STRINGS,1
	0x2246		
.debug_str	0xf328	0x12	./libs/txm_lib.lib(txm_module_callback_request_thread_entry.o)	#SHT_PROGBITS,SHF_MERGE|SHF_STRINGS,1
	0x225f		
.debug_str	0xf33a	0xe	./libs/txm_lib.lib(txm_module_callback_request_thread_entry.o)	#SHT_PROGBITS,SHF_MERGE|SHF_STRINGS,1
	0x2271		
.debug_str	0xf348	0xf	./libs/txm_lib.lib(txm_module_callback_request_thread_entry.o)	#SHT_PROGBITS,SHF_MERGE|SHF_STRINGS,1
	0x227f		
.debug_str	0xf357	0x11	./libs/txm_lib.lib(txm_module_callback_request_thread_entry.o)	#SHT_PROGBITS,SHF_MERGE|SHF_STRINGS,1
	0x228e		
.debug_str	0xf368	0x24	./libs/txm_lib.lib(txm_module_callback_request_thread_entry.o)	#SHT_PROGBITS,SHF_MERGE|SHF_STRINGS,1
	0x229f		
.debug_str	0xf38c	0x1a	./libs/txm_lib.lib(txm_module_callback_request_thread_entry.o)	#SHT_PROGBITS,SHF_MERGE|SHF_STRINGS,1
	0x22c3		
.debug_str	0xf3a6	0x22	./libs/txm_lib.lib(txm_module_callback_request_thread_entry.o)	#SHT_PROGBITS,SHF_MERGE|SHF_STRINGS,1
	0x22dd		
.debug_str	0xf3c8	0x1e	./libs/txm_lib.lib(txm_module_callback_request_thread_entry.o)	#SHT_PROGBITS,SHF_MERGE|SHF_STRINGS,1
	0x22ff		
.debug_str	0xf3e6	0x25	./libs/txm_lib.lib(txm_module_callback_request_thread_entry.o)	#SHT_PROGBITS,SHF_MERGE|SHF_STRINGS,1
	0x231d		
.debug_str	0xf40b	0x24	./libs/txm_lib.lib(txm_module_callback_request_thread_entry.o)	#SHT_PROGBITS,SHF_MERGE|SHF_STRINGS,1
	0x2342		
.debug_str	0xf42f	0x22	./libs/txm_lib.lib(txm_module_callback_request_thread_entry.o)	#SHT_PROGBITS,SHF_MERGE|SHF_STRINGS,1
	0x2366		
.debug_str	0xf451	0x29	./libs/txm_lib.lib(txm_module_callback_request_thread_entry.o)	#SHT_PROGBITS,SHF_MERGE|SHF_STRINGS,1
	0x2388		
.debug_str	0xf47a	0x19	./libs/txm_lib.lib(txm_module_callback_request_thread_entry.o)	#SHT_PROGBITS,SHF_MERGE|SHF_STRINGS,1
	0x23b1		
.debug_str	0xf493	0x1f	./libs/txm_lib.lib(txm_module_callback_request_thread_entry.o)	#SHT_PROGBITS,SHF_MERGE|SHF_STRINGS,1
	0x23ca		
.debug_str	0xf4b2	0x17	./libs/txm_lib.lib(txm_module_callback_request_thread_entry.o)	#SHT_PROGBITS,SHF_MERGE|SHF_STRINGS,1
	0x23e9		
.debug_str	0xf4c9	0x1c	./libs/txm_lib.lib(txm_module_callback_request_thread_entry.o)	#SHT_PROGBITS,SHF_MERGE|SHF_STRINGS,1
	0x2400		
.debug_str	0xf4e5	0x1c	./libs/txm_lib.lib(txm_module_callback_request_thread_entry.o)	#SHT_PROGBITS,SHF_MERGE|SHF_STRINGS,1
	0x241c		
.debug_str	0xf501	0x19	./libs/txm_lib.lib(txm_module_callback_request_thread_entry.o)	#SHT_PROGBITS,SHF_MERGE|SHF_STRINGS,1
	0x2438		
.debug_str	0xf51a	0x1d	./libs/txm_lib.lib(txm_module_callback_request_thread_entry.o)	#SHT_PROGBITS,SHF_MERGE|SHF_STRINGS,1
	0x2451		
.debug_str	0xf537	0x21	./libs/txm_lib.lib(txm_module_callback_request_thread_entry.o)	#SHT_PROGBITS,SHF_MERGE|SHF_STRINGS,1
	0x246e		
.debug_str	0xf558	0x25	./libs/txm_lib.lib(txm_module_callback_request_thread_entry.o)	#SHT_PROGBITS,SHF_MERGE|SHF_STRINGS,1
	0x248f		
.debug_str	0xf57d	0x1c	./libs/txm_lib.lib(txm_module_callback_request_thread_entry.o)	#SHT_PROGBITS,SHF_MERGE|SHF_STRINGS,1
	0x24b4		
.debug_str	0xf599	0x1c	./libs/txm_lib.lib(txm_module_callback_request_thread_entry.o)	#SHT_PROGBITS,SHF_MERGE|SHF_STRINGS,1
	0x24d0		
.debug_str	0xf5b5	0x1c	./libs/txm_lib.lib(txm_module_callback_request_thread_entry.o)	#SHT_PROGBITS,SHF_MERGE|SHF_STRINGS,1
	0x24ec		
.debug_str	0xf5d1	0x1c	./libs/txm_lib.lib(txm_module_callback_request_thread_entry.o)	#SHT_PROGBITS,SHF_MERGE|SHF_STRINGS,1
	0x2508		
.debug_str	0xf5ed	0x1c	./libs/txm_lib.lib(txm_module_callback_request_thread_entry.o)	#SHT_PROGBITS,SHF_MERGE|SHF_STRINGS,1
	0x2524		
.debug_str	0xf609	0x1c	./libs/txm_lib.lib(txm_module_callback_request_thread_entry.o)	#SHT_PROGBITS,SHF_MERGE|SHF_STRINGS,1
	0x2540		
.debug_str	0xf625	0x1b	./libs/txm_lib.lib(txm_module_callback_request_thread_entry.o)	#SHT_PROGBITS,SHF_MERGE|SHF_STRINGS,1
	0x255c		
.debug_str	0xf640	0x14	./libs/txm_lib.lib(txm_module_callback_request_thread_entry.o)	#SHT_PROGBITS,SHF_MERGE|SHF_STRINGS,1
	0x2577		
.debug_str	0xf654	0x30	./libs/txm_lib.lib(txm_module_callback_request_thread_entry.o)	#SHT_PROGBITS,SHF_MERGE|SHF_STRINGS,1
	0x258b		
.debug_str	0xf684	0x23	./libs/txm_lib.lib(txm_module_callback_request_thread_entry.o)	#SHT_PROGBITS,SHF_MERGE|SHF_STRINGS,1
	0x25bb		
.debug_str	0xf6a7	0x23	./libs/txm_lib.lib(txm_module_callback_request_thread_entry.o)	#SHT_PROGBITS,SHF_MERGE|SHF_STRINGS,1
	0x25de		
.debug_str	0xf6ca	0x20	./libs/txm_lib.lib(txm_module_callback_request_thread_entry.o)	#SHT_PROGBITS,SHF_MERGE|SHF_STRINGS,1
	0x2601		
.debug_str	0xf6ea	0x29	./libs/txm_lib.lib(txm_module_callback_request_thread_entry.o)	#SHT_PROGBITS,SHF_MERGE|SHF_STRINGS,1
	0x2621		
.debug_str	0xf713	0x25	./libs/txm_lib.lib(txm_module_callback_request_thread_entry.o)	#SHT_PROGBITS,SHF_MERGE|SHF_STRINGS,1
	0x264a		
.debug_str	0xf738	0x25	./libs/txm_lib.lib(txm_module_callback_request_thread_entry.o)	#SHT_PROGBITS,SHF_MERGE|SHF_STRINGS,1
	0x266f		
.debug_str	0xf75d	0x28	./libs/txm_lib.lib(txm_module_callback_request_thread_entry.o)	#SHT_PROGBITS,SHF_MERGE|SHF_STRINGS,1
	0x2694		
.debug_str	0xf785	0x2c	./libs/txm_lib.lib(txm_module_callback_request_thread_entry.o)	#SHT_PROGBITS,SHF_MERGE|SHF_STRINGS,1
	0x26bc		
.debug_str	0xf7b1	0x23	./libs/txm_lib.lib(txm_module_callback_request_thread_entry.o)	#SHT_PROGBITS,SHF_MERGE|SHF_STRINGS,1
	0x26e8		
.debug_str	0xf7d4	0x23	./libs/txm_lib.lib(txm_module_callback_request_thread_entry.o)	#SHT_PROGBITS,SHF_MERGE|SHF_STRINGS,1
	0x270b		
.debug_str	0xf7f7	0x23	./libs/txm_lib.lib(txm_module_callback_request_thread_entry.o)	#SHT_PROGBITS,SHF_MERGE|SHF_STRINGS,1
	0x272e		
.debug_str	0xf81a	0x23	./libs/txm_lib.lib(txm_module_callback_request_thread_entry.o)	#SHT_PROGBITS,SHF_MERGE|SHF_STRINGS,1
	0x2751		
.debug_str	0xf83d	0x23	./libs/txm_lib.lib(txm_module_callback_request_thread_entry.o)	#SHT_PROGBITS,SHF_MERGE|SHF_STRINGS,1
	0x2774		
.debug_str	0xf860	0x23	./libs/txm_lib.lib(txm_module_callback_request_thread_entry.o)	#SHT_PROGBITS,SHF_MERGE|SHF_STRINGS,1
	0x2797		
.debug_str	0xf883	0x22	./libs/txm_lib.lib(txm_module_callback_request_thread_entry.o)	#SHT_PROGBITS,SHF_MERGE|SHF_STRINGS,1
	0x27ba		
.debug_str	0xf8a5	0x1b	./libs/txm_lib.lib(txm_module_callback_request_thread_entry.o)	#SHT_PROGBITS,SHF_MERGE|SHF_STRINGS,1
	0x27dc		
.debug_str	0xf8c0	0x12	./libs/txm_lib.lib(txm_module_callback_request_thread_entry.o)	#SHT_PROGBITS,SHF_MERGE|SHF_STRINGS,1
	0x27f7		
.debug_str	0xf8d2	0x15	./libs/txm_lib.lib(txm_module_callback_request_thread_entry.o)	#SHT_PROGBITS,SHF_MERGE|SHF_STRINGS,1
	0x2809		
.debug_str	0xf8e7	0x12	./libs/txm_lib.lib(txm_module_callback_request_thread_entry.o)	#SHT_PROGBITS,SHF_MERGE|SHF_STRINGS,1
	0x281e		
.debug_str	0xf8f9	0xa4	./libs/txm_lib.lib(txm_module_system_call11.o)	#SHT_PROGBITS,SHF_MERGE|SHF_STRINGS,1
	0x2830		
.debug_str	0xf99d	0x1a	./libs/txm_lib.lib(txm_module_system_call11.o)	#SHT_PROGBITS,SHF_MERGE|SHF_STRINGS,1
	0x28d4		
.debug_str	0xf9b7	0x11	./libs/txm_lib.lib(txm_module_system_call11.o)	#SHT_PROGBITS,SHF_MERGE|SHF_STRINGS,1
	0x28ee		
.debug_str	0xf9c8	0x8	./libs/txm_lib.lib(txm_module_system_call11.o)	#SHT_PROGBITS,SHF_MERGE|SHF_STRINGS,1
	0x28ff		
.debug_str	0xf9d0	0x8	./libs/txm_lib.lib(txm_module_system_call11.o)	#SHT_PROGBITS,SHF_MERGE|SHF_STRINGS,1
	0x2907		
.debug_str	0xf9d8	0x8	./libs/txm_lib.lib(txm_module_system_call11.o)	#SHT_PROGBITS,SHF_MERGE|SHF_STRINGS,1
	0x290f		
.debug_str	0xf9e0	0x8	./libs/txm_lib.lib(txm_module_system_call11.o)	#SHT_PROGBITS,SHF_MERGE|SHF_STRINGS,1
	0x2917		
.debug_str	0xf9e8	0x8	./libs/txm_lib.lib(txm_module_system_call11.o)	#SHT_PROGBITS,SHF_MERGE|SHF_STRINGS,1
	0x291f		
.debug_str	0xf9f0	0x8	./libs/txm_lib.lib(txm_module_system_call11.o)	#SHT_PROGBITS,SHF_MERGE|SHF_STRINGS,1
	0x2927		
.debug_str	0xf9f8	0x8	./libs/txm_lib.lib(txm_module_system_call11.o)	#SHT_PROGBITS,SHF_MERGE|SHF_STRINGS,1
	0x292f		
.debug_str	0xfa00	0x8	./libs/txm_lib.lib(txm_module_system_call11.o)	#SHT_PROGBITS,SHF_MERGE|SHF_STRINGS,1
	0x2937		
.debug_str	0xfa08	0x8	./libs/txm_lib.lib(txm_module_system_call11.o)	#SHT_PROGBITS,SHF_MERGE|SHF_STRINGS,1
	0x293f		
.debug_str	0xfa10	0x8	./libs/txm_lib.lib(txm_module_system_call11.o)	#SHT_PROGBITS,SHF_MERGE|SHF_STRINGS,1
	0x2947		
.debug_str	0xfa18	0x9	./libs/txm_lib.lib(txm_module_system_call11.o)	#SHT_PROGBITS,SHF_MERGE|SHF_STRINGS,1
	0x294f		
.debug_str	0xfa21	0x9	./libs/txm_lib.lib(txm_module_system_call11.o)	#SHT_PROGBITS,SHF_MERGE|SHF_STRINGS,1
	0x2958		
.debug_str	0xfa2a	0xd	./libs/txm_lib.lib(txm_module_system_call11.o)	#SHT_PROGBITS,SHF_MERGE|SHF_STRINGS,1
	0x2961		
.debug_str	0xfa37	0xa4	./libs/txm_lib.lib(txm_module_system_call12.o)	#SHT_PROGBITS,SHF_MERGE|SHF_STRINGS,1
	0x296e		
.debug_str	0xfadb	0x1a	./libs/txm_lib.lib(txm_module_system_call12.o)	#SHT_PROGBITS,SHF_MERGE|SHF_STRINGS,1
	0x2a12		
.debug_str	0xfaf5	0x9	./libs/txm_lib.lib(txm_module_system_call12.o)	#SHT_PROGBITS,SHF_MERGE|SHF_STRINGS,1
	0x2a2c		
.debug_str	0xfafe	0xa3	./libs/txm_lib.lib(txm_module_system_call4.o)	#SHT_PROGBITS,SHF_MERGE|SHF_STRINGS,1
	0x2a35		
.debug_str	0xfba1	0x19	./libs/txm_lib.lib(txm_module_system_call4.o)	#SHT_PROGBITS,SHF_MERGE|SHF_STRINGS,1
	0x2ad8		
.debug_str	0xfbba	0xa3	./libs/txm_lib.lib(txm_module_system_call5.o)	#SHT_PROGBITS,SHF_MERGE|SHF_STRINGS,1
	0x2af1		
.debug_str	0xfc5d	0x19	./libs/txm_lib.lib(txm_module_system_call5.o)	#SHT_PROGBITS,SHF_MERGE|SHF_STRINGS,1
	0x2b94		
.debug_str	0xfc76	0xa3	./libs/txm_lib.lib(txm_module_system_call6.o)	#SHT_PROGBITS,SHF_MERGE|SHF_STRINGS,1
	0x2bad		
.debug_str	0xfd19	0x19	./libs/txm_lib.lib(txm_module_system_call6.o)	#SHT_PROGBITS,SHF_MERGE|SHF_STRINGS,1
	0x2c50		

.debug_loc	0xfd32	0x76d # Offset: 0xfd32
*(.debug_loc )
.debug_loc	0xfd32	0x30c	./libs/timer_dam_lib.lib(qapi_timer_user.o)	#SHT_PROGBITS,,1
.debug_loc	0x1003e	0x3c	./libs/txm_lib.lib(txm_module_thread_shell_entry.o)	#SHT_PROGBITS,,1
.debug_loc	0x1007a	0x75	./libs/txm_lib.lib(txm_module_callback_request_thread_entry.o)	#SHT_PROGBITS,,1
.debug_loc	0x100ef	0x103	./libs/txm_lib.lib(txm_module_system_call11.o)	#SHT_PROGBITS,,1
.debug_loc	0x101f2	0x118	./libs/txm_lib.lib(txm_module_system_call12.o)	#SHT_PROGBITS,,1
.debug_loc	0x1030a	0x73	./libs/txm_lib.lib(txm_module_system_call4.o)	#SHT_PROGBITS,,1
.debug_loc	0x1037d	0x87	./libs/txm_lib.lib(txm_module_system_call5.o)	#SHT_PROGBITS,,1
.debug_loc	0x10404	0x9b	./libs/txm_lib.lib(txm_module_system_call6.o)	#SHT_PROGBITS,,1

.debug_macinfo	0x1049f	0x8 # Offset: 0x1049f
*(.debug_macinfo )
.debug_macinfo	0x1049f	0x1	./libs/timer_dam_lib.lib(qapi_timer_user.o)	#SHT_PROGBITS,,1
.debug_macinfo	0x104a0	0x1	./libs/txm_lib.lib(txm_module_thread_shell_entry.o)	#SHT_PROGBITS,,1
.debug_macinfo	0x104a1	0x1	./libs/txm_lib.lib(txm_module_callback_request_thread_entry.o)	#SHT_PROGBITS,,1
.debug_macinfo	0x104a2	0x1	./libs/txm_lib.lib(txm_module_system_call11.o)	#SHT_PROGBITS,,1
.debug_macinfo	0x104a3	0x1	./libs/txm_lib.lib(txm_module_system_call12.o)	#SHT_PROGBITS,,1
.debug_macinfo	0x104a4	0x1	./libs/txm_lib.lib(txm_module_system_call4.o)	#SHT_PROGBITS,,1
.debug_macinfo	0x104a5	0x1	./libs/txm_lib.lib(txm_module_system_call5.o)	#SHT_PROGBITS,,1
.debug_macinfo	0x104a6	0x1	./libs/txm_lib.lib(txm_module_system_call6.o)	#SHT_PROGBITS,,1

.debug_weaknames	0x104a7	0x0 # Offset: 0x104a7

.debug_funcnames	0x104a7	0x0 # Offset: 0x104a7

.debug_typenames	0x104a7	0x0 # Offset: 0x104a7

.debug_varnames	0x104a7	0x0 # Offset: 0x104a7

.debug_pubtypes	0x104a7	0x82a # Offset: 0x104a7
*(.debug_pubtypes )
.debug_pubtypes	0x104a7	0x2bb	./libs/timer_dam_lib.lib(qapi_timer_user.o)	#SHT_PROGBITS,,1
.debug_pubtypes	0x10762	0x1e2	./libs/txm_lib.lib(txm_module_thread_shell_entry.o)	#SHT_PROGBITS,,1
.debug_pubtypes	0x10944	0x293	./libs/txm_lib.lib(txm_module_callback_request_thread_entry.o)	#SHT_PROGBITS,,1
.debug_pubtypes	0x10bd7	0x32	./libs/txm_lib.lib(txm_module_system_call11.o)	#SHT_PROGBITS,,1
.debug_pubtypes	0x10c09	0x32	./libs/txm_lib.lib(txm_module_system_call12.o)	#SHT_PROGBITS,,1
.debug_pubtypes	0x10c3b	0x32	./libs/txm_lib.lib(txm_module_system_call4.o)	#SHT_PROGBITS,,1
.debug_pubtypes	0x10c6d	0x32	./libs/txm_lib.lib(txm_module_system_call5.o)	#SHT_PROGBITS,,1
.debug_pubtypes	0x10c9f	0x32	./libs/txm_lib.lib(txm_module_system_call6.o)	#SHT_PROGBITS,,1

.debug_ranges	0x10cd1	0x58 # Offset: 0x10cd1
*(.debug_ranges )
.debug_ranges	0x10cd1	0x58	./libs/timer_dam_lib.lib(qapi_timer_user.o)	#SHT_PROGBITS,,1

.gnu.attributes	0x0	0x0 # Offset: 0x10d29, LMA: 0x0

.note.gnu.arm.ident	0x0	0x0 # Offset: 0x10d29, LMA: 0x0

.ARM.attributes	0x10d29	0x10 # Offset: 0x10d29

.comment	0x10d39	0x65 # Offset: 0x10d39
.comment	0x10d39	0x1	C:\compile_tools\LLVM\4.0.3\armv7m-none-eabi\libc\lib/libc.a(setlocale.o)	#SHT_PROGBITS,SHF_MERGE|SHF_STRINGS,1
.comment	0x10d76	0x28	Linker Version	#SHT_PROGBITS,SHF_MERGE|SHF_STRINGS,1

.note.GNU-stack	0x10d9e	0x0 # Offset: 0x10d9e

/DISCARD/	0x75	0x0 # Offset: 0x10d9e, LMA: 0x0

.shstrtab	0x10d9e	0xcc # Offset: 0x10d9e

.symtab	0x10e6c	0x6140 # Offset: 0x10e6c

.strtab	0x16fac	0x2b18 # Offset: 0x16fac
